

Microchip MPLAB XC8 Assembler V2.05 build -831301201 
                                                                                               Sat Aug 10 18:47:04 2019

Microchip MPLAB XC8 C Compiler v2.05 (Free license) build 20181220022703 Og1 
     1                           	processor	18F46K42
     2                           	fnconf	rparam,??,?,0
     3                           	opt	pw 120
     4                           	opt	flic
     5                           	psect	nvCOMRAM,global,class=COMRAM,space=1,delta=1,noexec
     6                           	psect	nvBANK0,global,class=BANK0,space=1,delta=1,lowdata,noexec
     7                           	psect	smallconst,global,reloc=2,class=SMALLCONST,delta=1,noexec
     8                           	psect	cinit,global,reloc=2,class=CODE,delta=1
     9                           	psect	bssCOMRAM,global,class=COMRAM,space=1,delta=1,noexec
    10                           	psect	bssBANK0,global,class=BANK0,space=1,delta=1,lowdata,noexec
    11                           	psect	cstackBANK0,global,class=BANK0,space=1,delta=1,noexec
    12                           	psect	cstackCOMRAM,global,class=COMRAM,space=1,delta=1,noexec
    13                           	psect	text0,global,reloc=2,class=CODE,delta=1
    14                           	psect	text1,global,reloc=2,class=CODE,delta=1,group=2
    15                           	psect	text2,global,reloc=2,class=CODE,delta=1
    16                           	psect	text3,global,reloc=2,class=CODE,delta=1
    17                           	psect	text4,global,reloc=2,class=CODE,delta=1
    18                           	psect	text5,global,reloc=2,class=CODE,delta=1
    19                           	psect	text6,global,reloc=2,class=CODE,delta=1,group=2
    20                           	psect	text7,global,reloc=2,class=CODE,delta=1,group=2
    21                           	psect	text8,global,reloc=2,class=CODE,delta=1,group=2
    22                           	psect	text9,global,reloc=2,class=CODE,delta=1
    23                           	psect	text10,global,reloc=2,class=CODE,delta=1
    24                           	psect	text11,global,reloc=2,class=CODE,delta=1
    25                           	psect	text12,global,reloc=2,class=CODE,delta=1
    26                           	psect	text13,global,reloc=2,class=CODE,delta=1
    27                           	psect	text14,global,reloc=2,class=CODE,delta=1
    28                           	psect	text15,global,reloc=2,class=CODE,delta=1
    29                           	psect	text16,global,reloc=2,class=CODE,delta=1
    30                           	psect	text17,global,reloc=2,class=CODE,delta=1
    31                           	psect	text18,global,reloc=2,class=CODE,delta=1
    32                           	psect	text19,global,reloc=2,class=CODE,delta=1
    33                           	psect	text20,global,reloc=2,class=CODE,delta=1
    34                           	psect	text21,global,reloc=2,class=CODE,delta=1
    35                           	psect	text22,global,reloc=2,class=CODE,delta=1
    36                           	psect	text23,global,reloc=2,class=CODE,delta=1
    37                           	psect	ivt0x8,global,reloc=2,class=CODE,delta=1,noexec,keep,optim=
    38                           	psect	intsave_regs,global,class=BIGRAM,space=1,delta=1,noexec
    39                           	psect	text24,global,reloc=2,class=CODE,delta=1
    40                           	psect	rparam,global,class=COMRAM,space=1,delta=1,noexec
    41  0000                     
    42                           ; Version 2.05
    43                           ; Generated 20/12/2018 GMT
    44                           ; 
    45                           ; Copyright © 2018, Microchip Technology Inc. and its subsidiaries ("Microchip")
    46                           ; All rights reserved.
    47                           ; 
    48                           ; This software is developed by Microchip Technology Inc. and its subsidiaries ("Microch
      +                          ip").
    49                           ; 
    50                           ; Redistribution and use in source and binary forms, with or without modification, are
    51                           ; permitted provided that the following conditions are met:
    52                           ; 
    53                           ;     1. Redistributions of source code must retain the above copyright notice, this lis
      +                          t of
    54                           ;        conditions and the following disclaimer.
    55                           ; 
    56                           ;     2. Redistributions in binary form must reproduce the above copyright notice, this 
      +                          list
    57                           ;        of conditions and the following disclaimer in the documentation and/or other
    58                           ;        materials provided with the distribution.
    59                           ; 
    60                           ;     3. Microchip's name may not be used to endorse or promote products derived from th
      +                          is
    61                           ;        software without specific prior written permission.
    62                           ; 
    63                           ; THIS SOFTWARE IS PROVIDED BY MICROCHIP "AS IS" AND ANY EXPRESS OR IMPLIED WARRANTIES,
    64                           ; INCLUDING, BUT NOT LIMITED TO, THE IMPLIED WARRANTIES OF MERCHANTABILITY AND FITNESS F
      +                          OR
    65                           ; PURPOSE ARE DISCLAIMED.  IN NO EVENT SHALL MICROCHIP BE LIABLE FOR ANY DIRECT, INDIREC
      +                          T,
    66                           ; INCIDENTAL, SPECIAL, EXEMPLARY, OR CONSEQUENTIAL DAMAGES (INCLUDING BUT NOT LIMITED TO
    67                           ; PROCUREMENT OF SUBSTITUTE GOODS OR SERVICES; LOSS OF USE, DATA OR PROFITS; OR BUSINESS
    68                           ; INTERRUPTION) HOWSOEVER CAUSED AND ON ANY THEORY OF LIABILITY, WHETHER IN CONTRACT, ST
      +                          RICT
    69                           ; LIABILITY, OR TORT (INCLUDING NEGLIGENCE OR OTHERWISE) ARISING IN ANY WAY OUT OF THE U
      +                          SE OF
    70                           ; THIS SOFTWARE, EVEN IF ADVISED OF THE POSSIBILITY OF SUCH DAMAGE.
    71                           ; 
    72                           ; 
    73                           ; Code-generator required, PIC18F46K42 Definitions
    74                           ; 
    75                           ; SFR Addresses
    76  0000                     
    77 ;; Function _IOCBF1_DefaultInterruptHandler is unused but had its address taken
    78  0000                     
    79 ;; Function _IOCBF1_Button_Pressed_ISR is unused but had its address taken
    80  0000                     
    81                           	psect	nvCOMRAM
    82  00005B                     __pnvCOMRAM:
    83                           	opt callstack 0
    84  00005B                     _IOCBF1_InterruptHandler:
    85                           	opt callstack 0
    86  00005B                     	ds	2
    87  00005D                     _uart1TxBufferRemaining:
    88                           	opt callstack 0
    89  00005D                     	ds	1
    90                           
    91                           	psect	nvBANK0
    92  000080                     __pnvBANK0:
    93                           	opt callstack 0
    94  000080                     _UART1_TxInterruptHandler:
    95                           	opt callstack 0
    96  000080                     	ds	2
    97  000082                     _UART1_RxInterruptHandler:
    98                           	opt callstack 0
    99  000082                     	ds	2
   100  0000                     _PIE0bits	set	14736
   101  0000                     _PMD7	set	14791
   102  0000                     _PMD6	set	14790
   103  0000                     _PMD5	set	14789
   104  0000                     _PMD4	set	14788
   105  0000                     _PMD3	set	14787
   106  0000                     _PMD2	set	14786
   107  0000                     _PMD1	set	14785
   108  0000                     _PMD0	set	14784
   109  0000                     _OSCTUNE	set	14814
   110  0000                     _OSCFRQ	set	14815
   111  0000                     _OSCEN	set	14813
   112  0000                     _OSCCON3	set	14811
   113  0000                     _OSCCON1	set	14809
   114  0000                     _PIR3bits	set	14755
   115  0000                     _PIE3bits	set	14739
   116  0000                     _U1RXPPS	set	15077
   117  0000                     _RC6PPS	set	14870
   118  0000                     _IOCBPbits	set	14933
   119  0000                     _IOCBNbits	set	14934
   120  0000                     _IOCBFbits	set	14935
   121  0000                     _SLRCONE	set	14979
   122  0000                     _SLRCOND	set	14963
   123  0000                     _SLRCONC	set	14947
   124  0000                     _SLRCONB	set	14931
   125  0000                     _SLRCONA	set	14915
   126  0000                     _ODCOND	set	14962
   127  0000                     _ODCONC	set	14946
   128  0000                     _ODCONB	set	14930
   129  0000                     _ODCONA	set	14914
   130  0000                     _ODCONE	set	14978
   131  0000                     _WPUC	set	14945
   132  0000                     _WPUA	set	14913
   133  0000                     _WPUB	set	14929
   134  0000                     _WPUE	set	14977
   135  0000                     _WPUD	set	14961
   136  0000                     _ANSELA	set	14912
   137  0000                     _ANSELE	set	14976
   138  0000                     _ANSELB	set	14928
   139  0000                     _ANSELC	set	14944
   140  0000                     _ANSELD	set	14960
   141  0000                     _U1RXB	set	15848
   142  0000                     _U1TXB	set	15850
   143  0000                     _U1ERRIRbits	set	15865
   144  0000                     _U1ERRIE	set	15866
   145  0000                     _U1ERRIR	set	15865
   146  0000                     _U1UIR	set	15864
   147  0000                     _U1FIFO	set	15863
   148  0000                     _U1BRGH	set	15862
   149  0000                     _U1BRGL	set	15861
   150  0000                     _U1CON2	set	15860
   151  0000                     _U1CON1	set	15859
   152  0000                     _U1CON0	set	15858
   153  0000                     _U1P3H	set	15857
   154  0000                     _U1P3L	set	15856
   155  0000                     _U1P2H	set	15855
   156  0000                     _U1P2L	set	15854
   157  0000                     _U1P1H	set	15853
   158  0000                     _U1P1L	set	15852
   159  0000                     _LATBbits	set	16315
   160  0000                     _TRISD	set	16325
   161  0000                     _TRISC	set	16324
   162  0000                     _TRISB	set	16323
   163  0000                     _TRISA	set	16322
   164  0000                     _TRISE	set	16326
   165  0000                     _LATC	set	16316
   166  0000                     _LATB	set	16315
   167  0000                     _LATA	set	16314
   168  0000                     _LATD	set	16317
   169  0000                     _LATE	set	16318
   170  0000                     _INTCON0bits	set	16338
   171                           
   172                           	psect	smallconst
   173  001000                     __psmallconst:
   174                           	opt callstack 0
   175  001000  00                 	db	0
   176  001001                     STR_2:
   177  001001  0D                 	db	13
   178  001002  0A                 	db	10
   179  001003  0D                 	db	13
   180  001004  0A                 	db	10
   181  001005  0D                 	db	13
   182  001006  0A                 	db	10
   183  001007  0D                 	db	13
   184  001008  0A                 	db	10
   185  001009  53                 	db	83	;'S'
   186  00100A  74                 	db	116	;'t'
   187  00100B  61                 	db	97	;'a'
   188  00100C  72                 	db	114	;'r'
   189  00100D  74                 	db	116	;'t'
   190  00100E  69                 	db	105	;'i'
   191  00100F  6E                 	db	110	;'n'
   192  001010  67                 	db	103	;'g'
   193  001011  20                 	db	32
   194  001012  50                 	db	80	;'P'
   195  001013  72                 	db	114	;'r'
   196  001014  6F                 	db	111	;'o'
   197  001015  67                 	db	103	;'g'
   198  001016  72                 	db	114	;'r'
   199  001017  61                 	db	97	;'a'
   200  001018  6D                 	db	109	;'m'
   201  001019  2E                 	db	46
   202  00101A  2E                 	db	46
   203  00101B  2E                 	db	46
   204  00101C  2E                 	db	46
   205  00101D  0D                 	db	13
   206  00101E  0A                 	db	10
   207  00101F  00                 	db	0
   208  001020                     STR_3:
   209  001020  50                 	db	80	;'P'
   210  001021  72                 	db	114	;'r'
   211  001022  65                 	db	101	;'e'
   212  001023  73                 	db	115	;'s'
   213  001024  73                 	db	115	;'s'
   214  001025  20                 	db	32
   215  001026  61                 	db	97	;'a'
   216  001027  6E                 	db	110	;'n'
   217  001028  79                 	db	121	;'y'
   218  001029  20                 	db	32
   219  00102A  6B                 	db	107	;'k'
   220  00102B  65                 	db	101	;'e'
   221  00102C  79                 	db	121	;'y'
   222  00102D  20                 	db	32
   223  00102E  74                 	db	116	;'t'
   224  00102F  6F                 	db	111	;'o'
   225  001030  20                 	db	32
   226  001031  74                 	db	116	;'t'
   227  001032  6F                 	db	111	;'o'
   228  001033  67                 	db	103	;'g'
   229  001034  67                 	db	103	;'g'
   230  001035  6C                 	db	108	;'l'
   231  001036  65                 	db	101	;'e'
   232  001037  20                 	db	32
   233  001038  4C                 	db	76	;'L'
   234  001039  45                 	db	69	;'E'
   235  00103A  44                 	db	68	;'D'
   236  00103B  0D                 	db	13
   237  00103C  0A                 	db	10
   238  00103D  00                 	db	0
   239  00103E                     STR_4:
   240  00103E  54                 	db	84	;'T'
   241  00103F  6F                 	db	111	;'o'
   242  001040  67                 	db	103	;'g'
   243  001041  67                 	db	103	;'g'
   244  001042  6C                 	db	108	;'l'
   245  001043  65                 	db	101	;'e'
   246  001044  64                 	db	100	;'d'
   247  001045  20                 	db	32
   248  001046  4C                 	db	76	;'L'
   249  001047  45                 	db	69	;'E'
   250  001048  44                 	db	68	;'D'
   251  001049  20                 	db	32
   252  00104A  70                 	db	112	;'p'
   253  00104B  72                 	db	114	;'r'
   254  00104C  65                 	db	101	;'e'
   255  00104D  73                 	db	115	;'s'
   256  00104E  73                 	db	115	;'s'
   257  00104F  69                 	db	105	;'i'
   258  001050  6E                 	db	110	;'n'
   259  001051  67                 	db	103	;'g'
   260  001052  3A                 	db	58	;':'
   261  001053  20                 	db	32
   262  001054  25                 	db	37
   263  001055  63                 	db	99	;'c'
   264  001056  20                 	db	32
   265  001057  0D                 	db	13
   266  001058  0A                 	db	10
   267  001059  00                 	db	0
   268  00105A  0D                 	db	13
   269  00105B  0A                 	db	10
   270  00105C  0D                 	db	13
   271  00105D  0A                 	db	10
   272  00105E  42                 	db	66	;'B'
   273  00105F  75                 	db	117	;'u'
   274  001060  74                 	db	116	;'t'
   275  001061  74                 	db	116	;'t'
   276  001062  6F                 	db	111	;'o'
   277  001063  6E                 	db	110	;'n'
   278  001064  20                 	db	32
   279  001065  50                 	db	80	;'P'
   280  001066  72                 	db	114	;'r'
   281  001067  65                 	db	101	;'e'
   282  001068  73                 	db	115	;'s'
   283  001069  73                 	db	115	;'s'
   284  00106A  65                 	db	101	;'e'
   285  00106B  64                 	db	100	;'d'
   286  00106C  0D                 	db	13
   287  00106D  0A                 	db	10
   288  00106E  00                 	db	0
   289                           
   290                           ; #config settings
   291  00106F  00                 	db	0	; dummy byte at the end
   292  0000                     
   293                           	psect	cinit
   294  00167C                     __pcinit:
   295                           	opt callstack 0
   296  00167C                     start_initialization:
   297                           	opt callstack 0
   298  00167C                     __initialization:
   299                           	opt callstack 0
   300                           
   301                           ; Clear objects allocated to BANK0 (32 bytes)
   302  00167C  EE00  F060         	lfsr	0,__pbssBANK0
   303  001680  0E20               	movlw	32
   304  001682                     clear_0:
   305  001682  6AEE               	clrf	postinc0,c
   306  001684  06E8               	decf	wreg,f,c
   307  001686  E1FD               	bnz	clear_0
   308                           
   309                           ; Clear objects allocated to COMRAM (30 bytes)
   310  001688  EE00  F03D         	lfsr	0,__pbssCOMRAM
   311  00168C  0E1E               	movlw	30
   312  00168E                     clear_1:
   313  00168E  6AEE               	clrf	postinc0,c
   314  001690  06E8               	decf	wreg,f,c
   315  001692  E1FD               	bnz	clear_1
   316                           
   317                           ;
   318                           ; Setup IVTBASE
   319                           ;
   320  001694  0E08               	movlw	(ivt0x8_base shr 0)& (0+255)
   321  001696  6ED5               	movwf	213,c
   322  001698  0E00               	movlw	(ivt0x8_base shr (0+8))& (0+255)
   323  00169A  6ED6               	movwf	214,c
   324  00169C  0E00               	movlw	(ivt0x8_base shr (0+16))& (0+255)
   325  00169E  6ED7               	movwf	215,c
   326  0016A0                     end_of_initialization:
   327                           	opt callstack 0
   328  0016A0                     __end_of__initialization:
   329                           	opt callstack 0
   330  0016A0  0100               	movlb	0
   331  0016A2  EFDE  F009         	goto	_main	;jump to C main() function
   332                           
   333                           	psect	bssCOMRAM
   334  00003D                     __pbssCOMRAM:
   335                           	opt callstack 0
   336  00003D                     _uart1RxBuffer:
   337                           	opt callstack 0
   338  00003D                     	ds	8
   339  000045                     _uart1TxBuffer:
   340                           	opt callstack 0
   341  000045                     	ds	8
   342  00004D                     _nout:
   343                           	opt callstack 0
   344  00004D                     	ds	2
   345  00004F                     _width:
   346                           	opt callstack 0
   347  00004F                     	ds	2
   348  000051                     _prec:
   349                           	opt callstack 0
   350  000051                     	ds	2
   351  000053                     _flags:
   352                           	opt callstack 0
   353  000053                     	ds	2
   354  000055                     _ReadBuffer:
   355                           	opt callstack 0
   356  000055                     	ds	1
   357  000056                     _uart1RxCount:
   358                           	opt callstack 0
   359  000056                     	ds	1
   360  000057                     _uart1RxTail:
   361                           	opt callstack 0
   362  000057                     	ds	1
   363  000058                     _uart1RxHead:
   364                           	opt callstack 0
   365  000058                     	ds	1
   366  000059                     _uart1TxTail:
   367                           	opt callstack 0
   368  000059                     	ds	1
   369  00005A                     _uart1TxHead:
   370                           	opt callstack 0
   371  00005A                     	ds	1
   372                           
   373                           	psect	bssBANK0
   374  000060                     __pbssBANK0:
   375                           	opt callstack 0
   376  000060                     _dbuf:
   377                           	opt callstack 0
   378  000060                     	ds	32
   379                           
   380                           	psect	cstackBANK0
   381  000084                     __pcstackBANK0:
   382                           	opt callstack 0
   383  000084                     ??_main:
   384                           
   385                           ; 1 bytes @ 0x0
   386  000084                     	ds	2
   387                           
   388                           	psect	cstackCOMRAM
   389  000001                     __pcstackCOMRAM:
   390                           	opt callstack 0
   391  000001                     ??_UART1_Receive_Toggle_ISR:
   392  000001                     
   393                           ; 1 bytes @ 0x0
   394  000001                     	ds	1
   395  000002                     ?_strlen:
   396                           	opt callstack 0
   397  000002                     UART1_Write@txData:
   398                           	opt callstack 0
   399  000002                     UART1_SetRxInterruptHandler@InterruptHandler:
   400                           	opt callstack 0
   401  000002                     UART1_SetTxInterruptHandler@InterruptHandler:
   402                           	opt callstack 0
   403  000002                     IOCBF1_SetInterruptHandler@InterruptHandler:
   404                           	opt callstack 0
   405  000002                     strlen@s:
   406                           	opt callstack 0
   407                           
   408                           ; 2 bytes @ 0x1
   409  000002                     	ds	1
   410  000003                     putch@txData:
   411                           	opt callstack 0
   412                           
   413                           ; 1 bytes @ 0x2
   414  000003                     	ds	1
   415  000004                     fputc@c:
   416                           	opt callstack 0
   417  000004                     strlen@a:
   418                           	opt callstack 0
   419                           
   420                           ; 2 bytes @ 0x3
   421  000004                     	ds	2
   422  000006                     fputc@fp:
   423                           	opt callstack 0
   424                           
   425                           ; 2 bytes @ 0x5
   426  000006                     	ds	2
   427  000008                     ??_fputc:
   428                           
   429                           ; 1 bytes @ 0x7
   430  000008                     	ds	5
   431  00000D                     fputs@s:
   432                           	opt callstack 0
   433                           
   434                           ; 2 bytes @ 0xC
   435  00000D                     	ds	2
   436  00000F                     fputs@fp:
   437                           	opt callstack 0
   438                           
   439                           ; 2 bytes @ 0xE
   440  00000F                     	ds	2
   441  000011                     fputs@c:
   442                           	opt callstack 0
   443                           
   444                           ; 1 bytes @ 0x10
   445  000011                     	ds	1
   446  000012                     fputs@i:
   447                           	opt callstack 0
   448                           
   449                           ; 2 bytes @ 0x11
   450  000012                     	ds	2
   451  000014                     ?_pad:
   452                           	opt callstack 0
   453  000014                     pad@fp:
   454                           	opt callstack 0
   455                           
   456                           ; 2 bytes @ 0x13
   457  000014                     	ds	2
   458  000016                     pad@buf:
   459                           	opt callstack 0
   460                           
   461                           ; 2 bytes @ 0x15
   462  000016                     	ds	2
   463  000018                     pad@p:
   464                           	opt callstack 0
   465                           
   466                           ; 2 bytes @ 0x17
   467  000018                     	ds	2
   468  00001A                     ??_pad:
   469                           
   470                           ; 1 bytes @ 0x19
   471  00001A                     	ds	1
   472  00001B                     pad@i:
   473                           	opt callstack 0
   474                           
   475                           ; 2 bytes @ 0x1A
   476  00001B                     	ds	2
   477  00001D                     pad@w:
   478                           	opt callstack 0
   479                           
   480                           ; 2 bytes @ 0x1C
   481  00001D                     	ds	2
   482  00001F                     ?_ctoa:
   483                           	opt callstack 0
   484  00001F                     ctoa@fp:
   485                           	opt callstack 0
   486                           
   487                           ; 2 bytes @ 0x1E
   488  00001F                     	ds	2
   489  000021                     ctoa@c:
   490                           	opt callstack 0
   491                           
   492                           ; 1 bytes @ 0x20
   493  000021                     	ds	1
   494  000022                     ctoa@w:
   495                           	opt callstack 0
   496                           
   497                           ; 2 bytes @ 0x21
   498  000022                     	ds	2
   499  000024                     ?_vfpfcnvrt:
   500                           	opt callstack 0
   501  000024                     vfpfcnvrt@fp:
   502                           	opt callstack 0
   503                           
   504                           ; 2 bytes @ 0x23
   505  000024                     	ds	2
   506  000026                     vfpfcnvrt@fmt:
   507                           	opt callstack 0
   508                           
   509                           ; 2 bytes @ 0x25
   510  000026                     	ds	2
   511  000028                     vfpfcnvrt@ap:
   512                           	opt callstack 0
   513                           
   514                           ; 2 bytes @ 0x27
   515  000028                     	ds	2
   516  00002A                     ??_vfpfcnvrt:
   517                           
   518                           ; 1 bytes @ 0x29
   519  00002A                     	ds	2
   520  00002C                     vfpfcnvrt@c:
   521                           	opt callstack 0
   522                           
   523                           ; 1 bytes @ 0x2B
   524  00002C                     	ds	1
   525  00002D                     ?_vfprintf:
   526                           	opt callstack 0
   527  00002D                     vfprintf@fp:
   528                           	opt callstack 0
   529                           
   530                           ; 2 bytes @ 0x2C
   531  00002D                     	ds	2
   532  00002F                     vfprintf@fmt:
   533                           	opt callstack 0
   534                           
   535                           ; 2 bytes @ 0x2E
   536  00002F                     	ds	2
   537  000031                     vfprintf@ap:
   538                           	opt callstack 0
   539                           
   540                           ; 2 bytes @ 0x30
   541  000031                     	ds	2
   542  000033                     vfprintf@cfmt:
   543                           	opt callstack 0
   544                           
   545                           ; 2 bytes @ 0x32
   546  000033                     	ds	2
   547  000035                     ?_printf:
   548                           	opt callstack 0
   549  000035                     printf@fmt:
   550                           	opt callstack 0
   551                           
   552                           ; 2 bytes @ 0x34
   553  000035                     	ds	4
   554  000039                     
   555                           ; 1 bytes @ 0x38
   556  000039                     	ds	2
   557  00003B                     printf@ap:
   558                           	opt callstack 0
   559                           
   560                           ; 2 bytes @ 0x3A
   561  00003B                     	ds	2
   562                           
   563 ;;
   564 ;;Main: autosize = 0, tempsize = 2, incstack = 0, save=0
   565 ;;
   566 ;; *************** function _main *****************
   567 ;; Defined at:
   568 ;;		line 65 in file "main.c"
   569 ;; Parameters:    Size  Location     Type
   570 ;;		None
   571 ;; Auto vars:     Size  Location     Type
   572 ;;		None
   573 ;; Return value:  Size  Location     Type
   574 ;;                  1    wreg      void 
   575 ;; Registers used:
   576 ;;		wreg, fsr1l, fsr1h, fsr2l, fsr2h, status,2, status,0, tblptrl, tblptrh, tblptru, cstack
   577 ;; Tracked objects:
   578 ;;		On entry : 0/0
   579 ;;		On exit  : 0/0
   580 ;;		Unchanged: 0/0
   581 ;; Data sizes:     COMRAM   BANK0   BANK1   BANK2   BANK3   BANK4   BANK5   BANK6   BANK7   BANK8   BANK9  BANK10  BANK1
      +1  BANK12  BANK13  BANK14  BANK15
   582 ;;      Params:         0       0       0       0       0       0       0       0       0       0       0       0       
      +0       0       0       0       0
   583 ;;      Locals:         0       0       0       0       0       0       0       0       0       0       0       0       
      +0       0       0       0       0
   584 ;;      Temps:          0       2       0       0       0       0       0       0       0       0       0       0       
      +0       0       0       0       0
   585 ;;      Totals:         0       2       0       0       0       0       0       0       0       0       0       0       
      +0       0       0       0       0
   586 ;;Total ram usage:        2 bytes
   587 ;; Hardware stack levels required when called:   11
   588 ;; This function calls:
   589 ;;		_IOCBF1_SetInterruptHandler
   590 ;;		_SYSTEM_Initialize
   591 ;;		_UART1_SetRxInterruptHandler
   592 ;;		_printf
   593 ;; This function is called by:
   594 ;;		Startup code after reset
   595 ;; This function uses a non-reentrant model
   596 ;;
   597                           
   598                           	psect	text0
   599  0013BC                     __ptext0:
   600                           	opt callstack 0
   601  0013BC                     _main:
   602                           	opt callstack 20
   603                           
   604                           ;main.c: 68:     SYSTEM_Initialize();
   605                           
   606                           ;incstack = 0
   607  0013BC  ECA7  F00B         	call	_SYSTEM_Initialize	;wreg free
   608                           
   609                           ;main.c: 75:     (INTCON0bits.GIE = 0);
   610  0013C0  9ED2               	bcf	16338,7,c	;volatile
   611                           
   612                           ;main.c: 76:     UART1_SetRxInterruptHandler(UART1_Receive_Toggle_ISR);
   613  0013C2  0E16               	movlw	low _UART1_Receive_Toggle_ISR
   614  0013C4  6E02               	movwf	UART1_SetRxInterruptHandler@InterruptHandler,c
   615  0013C6  0E17               	movlw	high _UART1_Receive_Toggle_ISR
   616  0013C8  6E03               	movwf	UART1_SetRxInterruptHandler@InterruptHandler+1,c
   617  0013CA  ECB9  F00B         	call	_UART1_SetRxInterruptHandler	;wreg free
   618                           
   619                           ;main.c: 77:     IOCBF1_SetInterruptHandler(IOCBF1_Button_Pressed_ISR);
   620  0013CE  0E00               	movlw	0
   621  0013D0  6E02               	movwf	IOCBF1_SetInterruptHandler@InterruptHandler,c
   622  0013D2  0E00               	movlw	0
   623  0013D4  6E03               	movwf	IOCBF1_SetInterruptHandler@InterruptHandler+1,c
   624  0013D6  ECC0  F00B         	call	_IOCBF1_SetInterruptHandler	;wreg free
   625                           
   626                           ;main.c: 79:     (INTCON0bits.GIE = 1);
   627  0013DA  8ED2               	bsf	16338,7,c	;volatile
   628                           
   629                           ;main.c: 84:     printf("\r\n\r\n\r\n\r\nStarting Program....\r\n");
   630  0013DC  0E01               	movlw	low STR_2
   631  0013DE  6E35               	movwf	printf@fmt,c
   632  0013E0  0E10               	movlw	high STR_2
   633  0013E2  6E36               	movwf	printf@fmt+1,c
   634  0013E4  EC53  F00B         	call	_printf	;wreg free
   635                           
   636                           ;main.c: 85:     printf("Press any key to toggle LED\r\n");
   637  0013E8  0E20               	movlw	low STR_3
   638  0013EA  6E35               	movwf	printf@fmt,c
   639  0013EC  0E10               	movlw	high STR_3
   640  0013EE  6E36               	movwf	printf@fmt+1,c
   641  0013F0  EC53  F00B         	call	_printf	;wreg free
   642                           
   643                           ;main.c: 86:     _delay((unsigned long)((1000)*(64000000/4000.0)));
   644  0013F4  0E52               	movlw	82
   645  0013F6  0100               	movlb	0	; () banked
   646  0013F8  6F85               	movwf	(??_main+1)& (0+255),b
   647  0013FA  0E2B               	movlw	43
   648  0013FC  6F84               	movwf	??_main& (0+255),b
   649  0013FE  0E00               	movlw	0
   650  001400                     u707:
   651  001400  2EE8               	decfsz	wreg,f,c
   652  001402  D7FE               	bra	u707
   653  001404  2F84               	decfsz	??_main& (0+255),f,b
   654  001406  D7FC               	bra	u707
   655  001408  2F85               	decfsz	(??_main+1)& (0+255),f,b
   656  00140A  D7FA               	bra	u707
   657  00140C  F000               	nop	
   658  00140E                     l1751:
   659                           
   660                           ;main.c: 89:     {;main.c: 90:         if (ReadBuffer){
   661  00140E  5055               	movf	_ReadBuffer,w,c	;volatile
   662  001410  B4D8               	btfsc	status,2,c
   663  001412  D7FD               	goto	l1751
   664                           
   665                           ;main.c: 91:             printf("Toggled LED pressing: %c \r\n",ReadBuffer );
   666  001414  0E3E               	movlw	low STR_4
   667  001416  6E35               	movwf	printf@fmt,c
   668  001418  0E10               	movlw	high STR_4
   669  00141A  6E36               	movwf	printf@fmt+1,c
   670  00141C  0060  F154  F037   	movff	_ReadBuffer,?_printf+2	;volatile
   671  001422  6A38               	clrf	?_printf+3,c
   672  001424  EC53  F00B         	call	_printf	;wreg free
   673                           
   674                           ;main.c: 92:             ReadBuffer=0;
   675  001428  0E00               	movlw	0
   676  00142A  6E55               	movwf	_ReadBuffer,c	;volatile
   677  00142C  D7F0               	goto	l1751
   678  00142E                     __end_of_main:
   679                           	opt callstack 0
   680                           
   681 ;; *************** function _printf *****************
   682 ;; Defined at:
   683 ;;		line 5 in file "/Applications/microchip/xc8/v2.05/pic/sources/c99/common/printf.c"
   684 ;; Parameters:    Size  Location     Type
   685 ;;  fmt             2   52[COMRAM] PTR const unsigned char 
   686 ;;		 -> STR_4(28), STR_3(30), STR_2(31), STR_1(21), 
   687 ;; Auto vars:     Size  Location     Type
   688 ;;  ap              2   58[COMRAM] PTR void [1]
   689 ;;		 -> ?_printf(2), 
   690 ;;  ret             2    0        int 
   691 ;; Return value:  Size  Location     Type
   692 ;;                  2   52[COMRAM] int 
   693 ;; Registers used:
   694 ;;		wreg, fsr1l, fsr1h, fsr2l, fsr2h, status,2, status,0, tblptrl, tblptrh, tblptru, cstack
   695 ;; Tracked objects:
   696 ;;		On entry : 0/0
   697 ;;		On exit  : 0/0
   698 ;;		Unchanged: 0/0
   699 ;; Data sizes:     COMRAM   BANK0   BANK1   BANK2   BANK3   BANK4   BANK5   BANK6   BANK7   BANK8   BANK9  BANK10  BANK1
      +1  BANK12  BANK13  BANK14  BANK15
   700 ;;      Params:         4       0       0       0       0       0       0       0       0       0       0       0       
      +0       0       0       0       0
   701 ;;      Locals:         4       0       0       0       0       0       0       0       0       0       0       0       
      +0       0       0       0       0
   702 ;;      Temps:          0       0       0       0       0       0       0       0       0       0       0       0       
      +0       0       0       0       0
   703 ;;      Totals:         8       0       0       0       0       0       0       0       0       0       0       0       
      +0       0       0       0       0
   704 ;;Total ram usage:        8 bytes
   705 ;; Hardware stack levels used:    1
   706 ;; Hardware stack levels required when called:   10
   707 ;; This function calls:
   708 ;;		_vfprintf
   709 ;; This function is called by:
   710 ;;		_main
   711 ;;		_IOCBF1_Button_Pressed_ISR
   712 ;; This function uses a non-reentrant model
   713 ;;
   714                           
   715                           	psect	text1
   716  0016A6                     __ptext1:
   717                           	opt callstack 0
   718  0016A6                     _printf:
   719                           	opt callstack 20
   720                           
   721                           ;incstack = 0
   722  0016A6  0E37               	movlw	low (?_printf+2)
   723  0016A8  6E3B               	movwf	printf@ap,c
   724  0016AA  0E00               	movlw	high (?_printf+2)
   725  0016AC  6E3C               	movwf	printf@ap+1,c
   726  0016AE  0E00               	movlw	0
   727  0016B0  6E2D               	movwf	vfprintf@fp,c
   728  0016B2  0E00               	movlw	0
   729  0016B4  6E2E               	movwf	vfprintf@fp+1,c
   730  0016B6  0060  F0D4  F02F   	movff	printf@fmt,vfprintf@fmt
   731  0016BC  0060  F0D8  F030   	movff	printf@fmt+1,vfprintf@fmt+1
   732  0016C2  0E3B               	movlw	low printf@ap
   733  0016C4  6E31               	movwf	vfprintf@ap,c
   734  0016C6  0E00               	movlw	high printf@ap
   735  0016C8  6E32               	movwf	vfprintf@ap+1,c
   736  0016CA  EC4D  F00A         	call	_vfprintf	;wreg free
   737  0016CE  0012               	return		;funcret
   738  0016D0                     __end_of_printf:
   739                           	opt callstack 0
   740                           
   741 ;; *************** function _vfprintf *****************
   742 ;; Defined at:
   743 ;;		line 1368 in file "/Applications/microchip/xc8/v2.05/pic/sources/c99/common/doprnt.c"
   744 ;; Parameters:    Size  Location     Type
   745 ;;  fp              2   44[COMRAM] PTR struct _IO_FILE
   746 ;;		 -> NULL(0), 
   747 ;;  fmt             2   46[COMRAM] PTR const unsigned char 
   748 ;;		 -> STR_4(28), STR_3(30), STR_2(31), STR_1(21), 
   749 ;;  ap              2   48[COMRAM] PTR PTR void 
   750 ;;		 -> printf@ap(2), 
   751 ;; Auto vars:     Size  Location     Type
   752 ;;  cfmt            2   50[COMRAM] PTR unsigned char 
   753 ;;		 -> STR_4(28), STR_3(30), STR_2(31), STR_1(21), 
   754 ;; Return value:  Size  Location     Type
   755 ;;                  2   44[COMRAM] int 
   756 ;; Registers used:
   757 ;;		wreg, fsr1l, fsr1h, fsr2l, fsr2h, status,2, status,0, tblptrl, tblptrh, tblptru, cstack
   758 ;; Tracked objects:
   759 ;;		On entry : 0/0
   760 ;;		On exit  : 0/0
   761 ;;		Unchanged: 0/0
   762 ;; Data sizes:     COMRAM   BANK0   BANK1   BANK2   BANK3   BANK4   BANK5   BANK6   BANK7   BANK8   BANK9  BANK10  BANK1
      +1  BANK12  BANK13  BANK14  BANK15
   763 ;;      Params:         6       0       0       0       0       0       0       0       0       0       0       0       
      +0       0       0       0       0
   764 ;;      Locals:         2       0       0       0       0       0       0       0       0       0       0       0       
      +0       0       0       0       0
   765 ;;      Temps:          0       0       0       0       0       0       0       0       0       0       0       0       
      +0       0       0       0       0
   766 ;;      Totals:         8       0       0       0       0       0       0       0       0       0       0       0       
      +0       0       0       0       0
   767 ;;Total ram usage:        8 bytes
   768 ;; Hardware stack levels used:    1
   769 ;; Hardware stack levels required when called:    9
   770 ;; This function calls:
   771 ;;		_vfpfcnvrt
   772 ;; This function is called by:
   773 ;;		_printf
   774 ;; This function uses a non-reentrant model
   775 ;;
   776                           
   777                           	psect	text2
   778  00149A                     __ptext2:
   779                           	opt callstack 0
   780  00149A                     _vfprintf:
   781                           	opt callstack 20
   782                           
   783                           ;/Applications/microchip/xc8/v2.05/pic/sources/c99/common/doprnt.c: 1368: int vfprintf(F
      +                          ILE *fp, const char *fmt, va_list ap);/Applications/microchip/xc8/v2.05/pic/sources/c99/
      +                          common/doprnt.c: 1369: {;/Applications/microchip/xc8/v2.05/pic/sources/c99/common/doprnt
      +                          .c: 1371:     char *cfmt;;/Applications/microchip/xc8/v2.05/pic/sources/c99/common/doprn
      +                          t.c: 1373:     cfmt = (char *)fmt;
   784                           
   785                           ;incstack = 0
   786  00149A  0060  F0BC  F033   	movff	vfprintf@fmt,vfprintf@cfmt
   787  0014A0  0060  F0C0  F034   	movff	vfprintf@fmt+1,vfprintf@cfmt+1
   788                           
   789                           ;/Applications/microchip/xc8/v2.05/pic/sources/c99/common/doprnt.c: 1374:     nout = 0;
   790  0014A6  0E00               	movlw	0
   791  0014A8  6E4E               	movwf	_nout+1,c
   792  0014AA  0E00               	movlw	0
   793  0014AC  6E4D               	movwf	_nout,c
   794                           
   795                           ;/Applications/microchip/xc8/v2.05/pic/sources/c99/common/doprnt.c: 1375:     while (*cf
      +                          mt) {
   796  0014AE  D016               	goto	l1653
   797  0014B0                     l1651:
   798                           
   799                           ;/Applications/microchip/xc8/v2.05/pic/sources/c99/common/doprnt.c: 1376:         nout +
      +                          = vfpfcnvrt(fp, &cfmt, ap);
   800  0014B0  0060  F0B4  F024   	movff	vfprintf@fp,vfpfcnvrt@fp
   801  0014B6  0060  F0B8  F025   	movff	vfprintf@fp+1,vfpfcnvrt@fp+1
   802  0014BC  0E33               	movlw	low vfprintf@cfmt
   803  0014BE  6E26               	movwf	vfpfcnvrt@fmt,c
   804  0014C0  0E00               	movlw	high vfprintf@cfmt
   805  0014C2  6E27               	movwf	vfpfcnvrt@fmt+1,c
   806  0014C4  0060  F0C4  F028   	movff	vfprintf@ap,vfpfcnvrt@ap
   807  0014CA  0060  F0C8  F029   	movff	vfprintf@ap+1,vfpfcnvrt@ap+1
   808  0014D0  EC38  F008         	call	_vfpfcnvrt	;wreg free
   809  0014D4  5024               	movf	?_vfpfcnvrt,w,c
   810  0014D6  264D               	addwf	_nout,f,c
   811  0014D8  5025               	movf	?_vfpfcnvrt+1,w,c
   812  0014DA  224E               	addwfc	_nout+1,f,c
   813  0014DC                     l1653:
   814                           
   815                           ;/Applications/microchip/xc8/v2.05/pic/sources/c99/common/doprnt.c: 1375:     while (*cf
      +                          mt) {
   816  0014DC  0060  F0CF  FFF6   	movff	vfprintf@cfmt,tblptrl
   817  0014E2  0060  F0D3  FFF7   	movff	vfprintf@cfmt+1,tblptrh
   818  0014E8                     	if	1	;Program memory is < 0x10000, tblptru is always zero
   819  0014E8  6AF8               	clrf	tblptru,c
   820  0014EA                     	endif
   821  0014EA                     	if	0	;tblptru may be non-zero
   822  0014EA                     	endif
   823  0014EA  0008               	tblrd		*
   824  0014EC  50F5               	movf	tablat,w,c
   825  0014EE  0900               	iorlw	0
   826  0014F0  A4D8               	btfss	status,2,c
   827  0014F2  D7DE               	goto	l1651
   828                           
   829                           ;/Applications/microchip/xc8/v2.05/pic/sources/c99/common/doprnt.c: 1378:     return nou
      +                          t;
   830  0014F4  0060  F134  F02D   	movff	_nout,?_vfprintf
   831  0014FA  0060  F138  F02E   	movff	_nout+1,?_vfprintf+1
   832  001500  0012               	return		;funcret
   833  001502                     __end_of_vfprintf:
   834                           	opt callstack 0
   835                           
   836 ;; *************** function _vfpfcnvrt *****************
   837 ;; Defined at:
   838 ;;		line 670 in file "/Applications/microchip/xc8/v2.05/pic/sources/c99/common/doprnt.c"
   839 ;; Parameters:    Size  Location     Type
   840 ;;  fp              2   35[COMRAM] PTR struct _IO_FILE
   841 ;;		 -> NULL(0), 
   842 ;;  fmt             2   37[COMRAM] PTR PTR unsigned char 
   843 ;;		 -> vfprintf@cfmt(2), 
   844 ;;  ap              2   39[COMRAM] PTR PTR void 
   845 ;;		 -> printf@ap(2), 
   846 ;; Auto vars:     Size  Location     Type
   847 ;;  llu             8    0        unsigned long long 
   848 ;;  ll              8    0        long long 
   849 ;;  f               4    0        long long 
   850 ;;  vp              3    0        PTR void 
   851 ;;  ct              3    0        unsigned char [3]
   852 ;;  cp              3    0        PTR unsigned char 
   853 ;;  i               2    0        int 
   854 ;;  done            2    0        int 
   855 ;;  c               1   43[COMRAM] unsigned char 
   856 ;; Return value:  Size  Location     Type
   857 ;;                  2   35[COMRAM] int 
   858 ;; Registers used:
   859 ;;		wreg, fsr1l, fsr1h, fsr2l, fsr2h, status,2, status,0, tblptrl, tblptrh, tblptru, cstack
   860 ;; Tracked objects:
   861 ;;		On entry : 0/0
   862 ;;		On exit  : 0/0
   863 ;;		Unchanged: 0/0
   864 ;; Data sizes:     COMRAM   BANK0   BANK1   BANK2   BANK3   BANK4   BANK5   BANK6   BANK7   BANK8   BANK9  BANK10  BANK1
      +1  BANK12  BANK13  BANK14  BANK15
   865 ;;      Params:         6       0       0       0       0       0       0       0       0       0       0       0       
      +0       0       0       0       0
   866 ;;      Locals:         1       0       0       0       0       0       0       0       0       0       0       0       
      +0       0       0       0       0
   867 ;;      Temps:          2       0       0       0       0       0       0       0       0       0       0       0       
      +0       0       0       0       0
   868 ;;      Totals:         9       0       0       0       0       0       0       0       0       0       0       0       
      +0       0       0       0       0
   869 ;;Total ram usage:        9 bytes
   870 ;; Hardware stack levels used:    1
   871 ;; Hardware stack levels required when called:    8
   872 ;; This function calls:
   873 ;;		_ctoa
   874 ;;		_fputc
   875 ;; This function is called by:
   876 ;;		_vfprintf
   877 ;; This function uses a non-reentrant model
   878 ;;
   879                           
   880                           	psect	text3
   881  001070                     __ptext3:
   882                           	opt callstack 0
   883  001070                     _vfpfcnvrt:
   884                           	opt callstack 20
   885                           
   886                           ;/Applications/microchip/xc8/v2.05/pic/sources/c99/common/doprnt.c: 670: static int vfpf
      +                          cnvrt(FILE *fp, char *fmt[], va_list ap);/Applications/microchip/xc8/v2.05/pic/sources/c
      +                          99/common/doprnt.c: 671: {;/Applications/microchip/xc8/v2.05/pic/sources/c99/common/dopr
      +                          nt.c: 672:     char c, *cp, ct[3];;/Applications/microchip/xc8/v2.05/pic/sources/c99/com
      +                          mon/doprnt.c: 673:     int done, i;;/Applications/microchip/xc8/v2.05/pic/sources/c99/co
      +                          mmon/doprnt.c: 674:     long long ll;;/Applications/microchip/xc8/v2.05/pic/sources/c99/
      +                          common/doprnt.c: 675:     unsigned long long llu;
   887                           
   888                           ;incstack = 0
   889  001070  0060  F09B  FFD9   	movff	vfpfcnvrt@fmt,fsr2l
   890  001076  0060  F09F  FFDA   	movff	vfpfcnvrt@fmt+1,fsr2h
   891  00107C  006F FF7B FFF6     	movff	postinc2,tblptrl
   892  001082  006F FF77 FFF7     	movff	postdec2,tblptrh
   893  001088                     	if	1	;Program memory is < 0x10000, tblptru is always zero
   894  001088  6AF8               	clrf	tblptru,c
   895  00108A                     	endif
   896  00108A                     	if	0	;tblptru may be non-zero
   897  00108A                     	endif
   898  00108A  0008               	tblrd		*
   899  00108C  50F5               	movf	tablat,w,c
   900  00108E  0A25               	xorlw	37
   901  001090  A4D8               	btfss	status,2,c
   902  001092  D094               	goto	l1557
   903                           
   904                           ;/Applications/microchip/xc8/v2.05/pic/sources/c99/common/doprnt.c: 681:         ++*fmt;
   905  001094  0060  F09B  FFD9   	movff	vfpfcnvrt@fmt,fsr2l
   906  00109A  0060  F09F  FFDA   	movff	vfpfcnvrt@fmt+1,fsr2h
   907  0010A0  2ADE               	incf	postinc2,f,c
   908  0010A2  0E00               	movlw	0
   909  0010A4  22DD               	addwfc	postdec2,f,c
   910                           
   911                           ;/Applications/microchip/xc8/v2.05/pic/sources/c99/common/doprnt.c: 683:         flags =
      +                           width = 0;
   912  0010A6  0E00               	movlw	0
   913  0010A8  6E50               	movwf	_width+1,c
   914  0010AA  0E00               	movlw	0
   915  0010AC  6E4F               	movwf	_width,c
   916  0010AE  0060  F13C  F053   	movff	_width,_flags
   917  0010B4  0060  F140  F054   	movff	_width+1,_flags+1
   918                           
   919                           ;/Applications/microchip/xc8/v2.05/pic/sources/c99/common/doprnt.c: 684:         prec = 
      +                          -1;
   920  0010BA  6851               	setf	_prec,c
   921  0010BC  6852               	setf	_prec+1,c
   922                           
   923                           ;/Applications/microchip/xc8/v2.05/pic/sources/c99/common/doprnt.c: 792:         if (*fm
      +                          t[0] == 'c') {
   924  0010BE  0060  F09B  FFD9   	movff	vfpfcnvrt@fmt,fsr2l
   925  0010C4  0060  F09F  FFDA   	movff	vfpfcnvrt@fmt+1,fsr2h
   926  0010CA  006F FF7B FFF6     	movff	postinc2,tblptrl
   927  0010D0  006F FF77 FFF7     	movff	postdec2,tblptrh
   928  0010D6                     	if	1	;Program memory is < 0x10000, tblptru is always zero
   929  0010D6  6AF8               	clrf	tblptru,c
   930  0010D8                     	endif
   931  0010D8                     	if	0	;tblptru may be non-zero
   932  0010D8                     	endif
   933  0010D8  0008               	tblrd		*
   934  0010DA  50F5               	movf	tablat,w,c
   935  0010DC  0A63               	xorlw	99
   936  0010DE  A4D8               	btfss	status,2,c
   937  0010E0  D033               	goto	l1541
   938                           
   939                           ;/Applications/microchip/xc8/v2.05/pic/sources/c99/common/doprnt.c: 793:             ++*
      +                          fmt;
   940  0010E2  0060  F09B  FFD9   	movff	vfpfcnvrt@fmt,fsr2l
   941  0010E8  0060  F09F  FFDA   	movff	vfpfcnvrt@fmt+1,fsr2h
   942  0010EE  2ADE               	incf	postinc2,f,c
   943  0010F0  0E00               	movlw	0
   944  0010F2  22DD               	addwfc	postdec2,f,c
   945                           
   946                           ;/Applications/microchip/xc8/v2.05/pic/sources/c99/common/doprnt.c: 794:             c =
      +                           (unsigned char)(*(int *)__va_arg(*(int **)ap, (int)0));
   947  0010F4  0060  F0A3  FFD9   	movff	vfpfcnvrt@ap,fsr2l
   948  0010FA  0060  F0A7  FFDA   	movff	vfpfcnvrt@ap+1,fsr2h
   949  001100  006F FF7C  F02A    	movff	indf2,??_vfpfcnvrt
   950  001106  0E02               	movlw	2
   951  001108  26DE               	addwf	postinc2,f,c
   952  00110A  006F FF7C  F02B    	movff	indf2,??_vfpfcnvrt+1
   953  001110  0E00               	movlw	0
   954  001112  22DD               	addwfc	postdec2,f,c
   955  001114  0060  F0AB  FFD9   	movff	??_vfpfcnvrt,fsr2l
   956  00111A  0060  F0AF  FFDA   	movff	??_vfpfcnvrt+1,fsr2h
   957  001120  50DF               	movf	indf2,w,c
   958  001122  6E2C               	movwf	vfpfcnvrt@c,c
   959                           
   960                           ;/Applications/microchip/xc8/v2.05/pic/sources/c99/common/doprnt.c: 795:             ret
      +                          urn ctoa(fp, c);
   961  001124  0060  F090  F01F   	movff	vfpfcnvrt@fp,ctoa@fp
   962  00112A  0060  F094  F020   	movff	vfpfcnvrt@fp+1,ctoa@fp+1
   963  001130  0060  F0B0  F021   	movff	vfpfcnvrt@c,ctoa@c
   964  001136  EC81  F00A         	call	_ctoa	;wreg free
   965  00113A  0060  F07C  F024   	movff	?_ctoa,?_vfpfcnvrt
   966  001140  0060  F080  F025   	movff	?_ctoa+1,?_vfpfcnvrt+1
   967  001146  0012               	return	
   968  001148                     l1541:
   969                           
   970                           ;/Applications/microchip/xc8/v2.05/pic/sources/c99/common/doprnt.c: 1350:         if ((*
      +                          fmt)[0] == '%') {
   971  001148  0060  F09B  FFD9   	movff	vfpfcnvrt@fmt,fsr2l
   972  00114E  0060  F09F  FFDA   	movff	vfpfcnvrt@fmt+1,fsr2h
   973  001154  006F FF7B FFF6     	movff	postinc2,tblptrl
   974  00115A  006F FF77 FFF7     	movff	postdec2,tblptrh
   975  001160                     	if	1	;Program memory is < 0x10000, tblptru is always zero
   976  001160  6AF8               	clrf	tblptru,c
   977  001162                     	endif
   978  001162                     	if	0	;tblptru may be non-zero
   979  001162                     	endif
   980  001162  0008               	tblrd		*
   981  001164  50F5               	movf	tablat,w,c
   982  001166  0A25               	xorlw	37
   983  001168  A4D8               	btfss	status,2,c
   984  00116A  D01A               	goto	l1551
   985                           
   986                           ;/Applications/microchip/xc8/v2.05/pic/sources/c99/common/doprnt.c: 1351:             ++
      +                          *fmt;
   987  00116C  0060  F09B  FFD9   	movff	vfpfcnvrt@fmt,fsr2l
   988  001172  0060  F09F  FFDA   	movff	vfpfcnvrt@fmt+1,fsr2h
   989  001178  2ADE               	incf	postinc2,f,c
   990  00117A  0E00               	movlw	0
   991  00117C  22DD               	addwfc	postdec2,f,c
   992                           
   993                           ;/Applications/microchip/xc8/v2.05/pic/sources/c99/common/doprnt.c: 1352:             fp
      +                          utc((int)'%', fp);
   994  00117E  0E00               	movlw	0
   995  001180  6E05               	movwf	fputc@c+1,c
   996  001182  0E25               	movlw	37
   997  001184  6E04               	movwf	fputc@c,c
   998  001186  0060  F090  F006   	movff	vfpfcnvrt@fp,fputc@fp
   999  00118C  0060  F094  F007   	movff	vfpfcnvrt@fp+1,fputc@fp+1
  1000  001192  EC17  F00A         	call	_fputc	;wreg free
  1001  001196                     l1547:
  1002                           
  1003                           ;/Applications/microchip/xc8/v2.05/pic/sources/c99/common/doprnt.c: 1353:             re
      +                          turn 1;
  1004  001196  0E00               	movlw	0
  1005  001198  6E25               	movwf	?_vfpfcnvrt+1,c
  1006  00119A  0E01               	movlw	1
  1007  00119C  6E24               	movwf	?_vfpfcnvrt,c
  1008  00119E  0012               	return	
  1009  0011A0                     l1551:
  1010                           
  1011                           ;/Applications/microchip/xc8/v2.05/pic/sources/c99/common/doprnt.c: 1357:         ++*fmt
      +                          ;
  1012  0011A0  0060  F09B  FFD9   	movff	vfpfcnvrt@fmt,fsr2l
  1013  0011A6  0060  F09F  FFDA   	movff	vfpfcnvrt@fmt+1,fsr2h
  1014  0011AC  2ADE               	incf	postinc2,f,c
  1015  0011AE  0E00               	movlw	0
  1016  0011B0  22DD               	addwfc	postdec2,f,c
  1017                           
  1018                           ;/Applications/microchip/xc8/v2.05/pic/sources/c99/common/doprnt.c: 1358:         return
      +                           0;
  1019  0011B2  0E00               	movlw	0
  1020  0011B4  6E25               	movwf	?_vfpfcnvrt+1,c
  1021  0011B6  0E00               	movlw	0
  1022  0011B8  6E24               	movwf	?_vfpfcnvrt,c
  1023  0011BA  0012               	return	
  1024  0011BC                     l1557:
  1025                           
  1026                           ;/Applications/microchip/xc8/v2.05/pic/sources/c99/common/doprnt.c: 1362:     fputc((int
      +                          )(*fmt)[0], fp);
  1027  0011BC  0060  F09B  FFD9   	movff	vfpfcnvrt@fmt,fsr2l
  1028  0011C2  0060  F09F  FFDA   	movff	vfpfcnvrt@fmt+1,fsr2h
  1029  0011C8  006F FF7B FFF6     	movff	postinc2,tblptrl
  1030  0011CE  006F FF77 FFF7     	movff	postdec2,tblptrh
  1031  0011D4                     	if	1	;Program memory is < 0x10000, tblptru is always zero
  1032  0011D4  6AF8               	clrf	tblptru,c
  1033  0011D6                     	endif
  1034  0011D6                     	if	0	;tblptru may be non-zero
  1035  0011D6                     	endif
  1036  0011D6  0008               	tblrd		*
  1037  0011D8  50F5               	movf	tablat,w,c
  1038  0011DA  6E04               	movwf	fputc@c,c
  1039  0011DC  6A05               	clrf	fputc@c+1,c
  1040  0011DE  0060  F090  F006   	movff	vfpfcnvrt@fp,fputc@fp
  1041  0011E4  0060  F094  F007   	movff	vfpfcnvrt@fp+1,fputc@fp+1
  1042  0011EA  EC17  F00A         	call	_fputc	;wreg free
  1043                           
  1044                           ;/Applications/microchip/xc8/v2.05/pic/sources/c99/common/doprnt.c: 1363:     ++*fmt;
  1045  0011EE  0060  F09B  FFD9   	movff	vfpfcnvrt@fmt,fsr2l
  1046  0011F4  0060  F09F  FFDA   	movff	vfpfcnvrt@fmt+1,fsr2h
  1047  0011FA  2ADE               	incf	postinc2,f,c
  1048  0011FC  0E00               	movlw	0
  1049  0011FE  22DD               	addwfc	postdec2,f,c
  1050  001200  D7CA               	goto	l1547
  1051  001202                     __end_of_vfpfcnvrt:
  1052                           	opt callstack 0
  1053                           
  1054 ;; *************** function _ctoa *****************
  1055 ;; Defined at:
  1056 ;;		line 259 in file "/Applications/microchip/xc8/v2.05/pic/sources/c99/common/doprnt.c"
  1057 ;; Parameters:    Size  Location     Type
  1058 ;;  fp              2   30[COMRAM] PTR struct _IO_FILE
  1059 ;;		 -> NULL(0), 
  1060 ;;  c               1   32[COMRAM] unsigned char 
  1061 ;; Auto vars:     Size  Location     Type
  1062 ;;  w               2   33[COMRAM] int 
  1063 ;;  l               2    0        int 
  1064 ;; Return value:  Size  Location     Type
  1065 ;;                  2   30[COMRAM] int 
  1066 ;; Registers used:
  1067 ;;		wreg, fsr1l, fsr1h, fsr2l, fsr2h, status,2, status,0, cstack
  1068 ;; Tracked objects:
  1069 ;;		On entry : 0/0
  1070 ;;		On exit  : 0/0
  1071 ;;		Unchanged: 0/0
  1072 ;; Data sizes:     COMRAM   BANK0   BANK1   BANK2   BANK3   BANK4   BANK5   BANK6   BANK7   BANK8   BANK9  BANK10  BANK1
      +1  BANK12  BANK13  BANK14  BANK15
  1073 ;;      Params:         3       0       0       0       0       0       0       0       0       0       0       0       
      +0       0       0       0       0
  1074 ;;      Locals:         2       0       0       0       0       0       0       0       0       0       0       0       
      +0       0       0       0       0
  1075 ;;      Temps:          0       0       0       0       0       0       0       0       0       0       0       0       
      +0       0       0       0       0
  1076 ;;      Totals:         5       0       0       0       0       0       0       0       0       0       0       0       
      +0       0       0       0       0
  1077 ;;Total ram usage:        5 bytes
  1078 ;; Hardware stack levels used:    1
  1079 ;; Hardware stack levels required when called:    7
  1080 ;; This function calls:
  1081 ;;		_pad
  1082 ;; This function is called by:
  1083 ;;		_vfpfcnvrt
  1084 ;; This function uses a non-reentrant model
  1085 ;;
  1086                           
  1087                           	psect	text4
  1088  001502                     __ptext4:
  1089                           	opt callstack 0
  1090  001502                     _ctoa:
  1091                           	opt callstack 20
  1092                           
  1093                           ;/Applications/microchip/xc8/v2.05/pic/sources/c99/common/doprnt.c: 259: static int ctoa
      +                          (FILE *fp, char c);/Applications/microchip/xc8/v2.05/pic/sources/c99/common/doprnt.c: 26
      +                          0: {;/Applications/microchip/xc8/v2.05/pic/sources/c99/common/doprnt.c: 261:     int l, 
      +                          w;;/Applications/microchip/xc8/v2.05/pic/sources/c99/common/doprnt.c: 264:     w = width
      +                           ? width - 1 : width;
  1094                           
  1095                           ;incstack = 0
  1096  001502  504F               	movf	_width,w,c
  1097  001504  1050               	iorwf	_width+1,w,c
  1098  001506  A4D8               	btfss	status,2,c
  1099  001508  D007               	goto	l1509
  1100  00150A  0060  F13C  F022   	movff	_width,ctoa@w
  1101  001510  0060  F140  F023   	movff	_width+1,ctoa@w+1
  1102  001516  D006               	goto	l1511
  1103  001518                     l1509:
  1104  001518  0EFF               	movlw	255
  1105  00151A  244F               	addwf	_width,w,c
  1106  00151C  6E22               	movwf	ctoa@w,c
  1107  00151E  0EFF               	movlw	255
  1108  001520  2050               	addwfc	_width+1,w,c
  1109  001522  6E23               	movwf	ctoa@w+1,c
  1110  001524                     l1511:
  1111                           
  1112                           ;/Applications/microchip/xc8/v2.05/pic/sources/c99/common/doprnt.c: 267:     dbuf[0] = c
      +                          ;
  1113  001524  0060  F084  F060   	movff	ctoa@c,_dbuf
  1114                           
  1115                           ;/Applications/microchip/xc8/v2.05/pic/sources/c99/common/doprnt.c: 268:     dbuf[1] = '
      +                          \0';
  1116  00152A  0E00               	movlw	0
  1117  00152C  0100               	movlb	0	; () banked
  1118  00152E  6F61               	movwf	(_dbuf+1)& (0+255),b
  1119                           
  1120                           ; BSR set to: 0
  1121                           ;/Applications/microchip/xc8/v2.05/pic/sources/c99/common/doprnt.c: 269:     return pad(
      +                          fp, &dbuf[0], w);
  1122  001530  0060  F07C  F014   	movff	ctoa@fp,pad@fp
  1123  001536  0060  F080  F015   	movff	ctoa@fp+1,pad@fp+1
  1124  00153C  0E60               	movlw	low _dbuf
  1125  00153E  6E16               	movwf	pad@buf,c
  1126  001540  0E00               	movlw	high _dbuf
  1127  001542  6E17               	movwf	pad@buf+1,c
  1128  001544  0060  F088  F018   	movff	ctoa@w,pad@p
  1129  00154A  0060  F08C  F019   	movff	ctoa@w+1,pad@p+1
  1130  001550  EC01  F009         	call	_pad	;wreg free
  1131  001554  0060  F050  F01F   	movff	?_pad,?_ctoa
  1132  00155A  0060  F054  F020   	movff	?_pad+1,?_ctoa+1
  1133  001560  0012               	return		;funcret
  1134  001562                     __end_of_ctoa:
  1135                           	opt callstack 0
  1136                           
  1137 ;; *************** function _pad *****************
  1138 ;; Defined at:
  1139 ;;		line 72 in file "/Applications/microchip/xc8/v2.05/pic/sources/c99/common/doprnt.c"
  1140 ;; Parameters:    Size  Location     Type
  1141 ;;  fp              2   19[COMRAM] PTR struct _IO_FILE
  1142 ;;		 -> NULL(0), 
  1143 ;;  buf             2   21[COMRAM] PTR unsigned char 
  1144 ;;		 -> dbuf(32), 
  1145 ;;  p               2   23[COMRAM] int 
  1146 ;; Auto vars:     Size  Location     Type
  1147 ;;  w               2   28[COMRAM] int 
  1148 ;;  i               2   26[COMRAM] int 
  1149 ;; Return value:  Size  Location     Type
  1150 ;;                  2   19[COMRAM] int 
  1151 ;; Registers used:
  1152 ;;		wreg, fsr1l, fsr1h, fsr2l, fsr2h, status,2, status,0, cstack
  1153 ;; Tracked objects:
  1154 ;;		On entry : 0/0
  1155 ;;		On exit  : 0/0
  1156 ;;		Unchanged: 0/0
  1157 ;; Data sizes:     COMRAM   BANK0   BANK1   BANK2   BANK3   BANK4   BANK5   BANK6   BANK7   BANK8   BANK9  BANK10  BANK1
      +1  BANK12  BANK13  BANK14  BANK15
  1158 ;;      Params:         6       0       0       0       0       0       0       0       0       0       0       0       
      +0       0       0       0       0
  1159 ;;      Locals:         4       0       0       0       0       0       0       0       0       0       0       0       
      +0       0       0       0       0
  1160 ;;      Temps:          1       0       0       0       0       0       0       0       0       0       0       0       
      +0       0       0       0       0
  1161 ;;      Totals:        11       0       0       0       0       0       0       0       0       0       0       0       
      +0       0       0       0       0
  1162 ;;Total ram usage:       11 bytes
  1163 ;; Hardware stack levels used:    1
  1164 ;; Hardware stack levels required when called:    6
  1165 ;; This function calls:
  1166 ;;		_fputc
  1167 ;;		_fputs
  1168 ;;		_strlen
  1169 ;; This function is called by:
  1170 ;;		_ctoa
  1171 ;; This function uses a non-reentrant model
  1172 ;;
  1173                           
  1174                           	psect	text5
  1175  001202                     __ptext5:
  1176                           	opt callstack 0
  1177  001202                     _pad:
  1178                           	opt callstack 20
  1179                           
  1180                           ;/Applications/microchip/xc8/v2.05/pic/sources/c99/common/doprnt.c: 72: static int pad(F
      +                          ILE *fp, char *buf, int p);/Applications/microchip/xc8/v2.05/pic/sources/c99/common/dopr
      +                          nt.c: 73: {;/Applications/microchip/xc8/v2.05/pic/sources/c99/common/doprnt.c: 74:     i
      +                          nt i, w;;/Applications/microchip/xc8/v2.05/pic/sources/c99/common/doprnt.c: 77:     if (
      +                          flags & (1 << 0)) {
  1181                           
  1182                           ;incstack = 0
  1183  001202  A053               	btfss	_flags,0,c
  1184  001204  D00E               	goto	l1487
  1185                           
  1186                           ;/Applications/microchip/xc8/v2.05/pic/sources/c99/common/doprnt.c: 78:         fputs((c
      +                          onst char *)buf, fp);
  1187  001206  0060  F058  F00D   	movff	pad@buf,fputs@s
  1188  00120C  0060  F05C  F00E   	movff	pad@buf+1,fputs@s+1
  1189  001212  0060  F050  F00F   	movff	pad@fp,fputs@fp
  1190  001218  0060  F054  F010   	movff	pad@fp+1,fputs@fp+1
  1191  00121E  ECD1  F00A         	call	_fputs	;wreg free
  1192  001222                     l1487:
  1193                           
  1194                           ;/Applications/microchip/xc8/v2.05/pic/sources/c99/common/doprnt.c: 82:     w = (p < 0) 
      +                          ? 0 : p;
  1195  001222  BE19               	btfsc	pad@p+1,7,c
  1196  001224  D007               	goto	l1491
  1197  001226  0060  F060  F01D   	movff	pad@p,pad@w
  1198  00122C  0060  F064  F01E   	movff	pad@p+1,pad@w+1
  1199  001232  D004               	goto	l350
  1200  001234                     l1491:
  1201  001234  0E00               	movlw	0
  1202  001236  6E1E               	movwf	pad@w+1,c
  1203  001238  0E00               	movlw	0
  1204  00123A  6E1D               	movwf	pad@w,c
  1205  00123C                     l350:
  1206                           
  1207                           ;/Applications/microchip/xc8/v2.05/pic/sources/c99/common/doprnt.c: 83:     i = 0;
  1208  00123C  0E00               	movlw	0
  1209  00123E  6E1C               	movwf	pad@i+1,c
  1210  001240  0E00               	movlw	0
  1211  001242  6E1B               	movwf	pad@i,c
  1212                           
  1213                           ;/Applications/microchip/xc8/v2.05/pic/sources/c99/common/doprnt.c: 84:     while (i < w
      +                          ) {
  1214  001244  D00E               	goto	l1497
  1215  001246                     l1493:
  1216                           
  1217                           ;/Applications/microchip/xc8/v2.05/pic/sources/c99/common/doprnt.c: 85:         fputc(' 
      +                          ', fp);
  1218  001246  0E00               	movlw	0
  1219  001248  6E05               	movwf	fputc@c+1,c
  1220  00124A  0E20               	movlw	32
  1221  00124C  6E04               	movwf	fputc@c,c
  1222  00124E  0060  F050  F006   	movff	pad@fp,fputc@fp
  1223  001254  0060  F054  F007   	movff	pad@fp+1,fputc@fp+1
  1224  00125A  EC17  F00A         	call	_fputc	;wreg free
  1225                           
  1226                           ;/Applications/microchip/xc8/v2.05/pic/sources/c99/common/doprnt.c: 86:         ++i;
  1227  00125E  4A1B               	infsnz	pad@i,f,c
  1228  001260  2A1C               	incf	pad@i+1,f,c
  1229  001262                     l1497:
  1230                           
  1231                           ;/Applications/microchip/xc8/v2.05/pic/sources/c99/common/doprnt.c: 84:     while (i < w
      +                          ) {
  1232  001262  501D               	movf	pad@w,w,c
  1233  001264  5C1B               	subwf	pad@i,w,c
  1234  001266  501C               	movf	pad@i+1,w,c
  1235  001268  0A80               	xorlw	128
  1236  00126A  6E1A               	movwf	??_pad& (0+255),c
  1237  00126C  501E               	movf	pad@w+1,w,c
  1238  00126E  0A80               	xorlw	128
  1239  001270  581A               	subwfb	??_pad& (0+255),w,c
  1240  001272  A0D8               	btfss	status,0,c
  1241  001274  D7E8               	goto	l1493
  1242                           
  1243                           ;/Applications/microchip/xc8/v2.05/pic/sources/c99/common/doprnt.c: 90:     if (!(flags 
      +                          & (1 << 0))) {
  1244  001276  B053               	btfsc	_flags,0,c
  1245  001278  D00E               	goto	l1501
  1246                           
  1247                           ;/Applications/microchip/xc8/v2.05/pic/sources/c99/common/doprnt.c: 91:         fputs((c
      +                          onst char *)buf, fp);
  1248  00127A  0060  F058  F00D   	movff	pad@buf,fputs@s
  1249  001280  0060  F05C  F00E   	movff	pad@buf+1,fputs@s+1
  1250  001286  0060  F050  F00F   	movff	pad@fp,fputs@fp
  1251  00128C  0060  F054  F010   	movff	pad@fp+1,fputs@fp+1
  1252  001292  ECD1  F00A         	call	_fputs	;wreg free
  1253  001296                     l1501:
  1254                           
  1255                           ;/Applications/microchip/xc8/v2.05/pic/sources/c99/common/doprnt.c: 94:     return strle
      +                          n(buf) + w;
  1256  001296  0060  F058  F002   	movff	pad@buf,strlen@s
  1257  00129C  0060  F05C  F003   	movff	pad@buf+1,strlen@s+1
  1258  0012A2  EC0E  F00B         	call	_strlen	;wreg free
  1259  0012A6  501D               	movf	pad@w,w,c
  1260  0012A8  2402               	addwf	?_strlen,w,c
  1261  0012AA  6E14               	movwf	?_pad,c
  1262  0012AC  501E               	movf	pad@w+1,w,c
  1263  0012AE  2003               	addwfc	?_strlen+1,w,c
  1264  0012B0  6E15               	movwf	?_pad+1,c
  1265  0012B2  0012               	return		;funcret
  1266  0012B4                     __end_of_pad:
  1267                           	opt callstack 0
  1268                           
  1269 ;; *************** function _strlen *****************
  1270 ;; Defined at:
  1271 ;;		line 12 in file "/Applications/microchip/xc8/v2.05/pic/sources/c99/common/strlen.c"
  1272 ;; Parameters:    Size  Location     Type
  1273 ;;  s               2    1[COMRAM] PTR const unsigned char 
  1274 ;;		 -> dbuf(32), 
  1275 ;; Auto vars:     Size  Location     Type
  1276 ;;  a               2    3[COMRAM] PTR const unsigned char 
  1277 ;;		 -> dbuf(32), 
  1278 ;; Return value:  Size  Location     Type
  1279 ;;                  2    1[COMRAM] unsigned int 
  1280 ;; Registers used:
  1281 ;;		wreg, fsr2l, fsr2h, status,2, status,0
  1282 ;; Tracked objects:
  1283 ;;		On entry : 0/0
  1284 ;;		On exit  : 0/0
  1285 ;;		Unchanged: 0/0
  1286 ;; Data sizes:     COMRAM   BANK0   BANK1   BANK2   BANK3   BANK4   BANK5   BANK6   BANK7   BANK8   BANK9  BANK10  BANK1
      +1  BANK12  BANK13  BANK14  BANK15
  1287 ;;      Params:         2       0       0       0       0       0       0       0       0       0       0       0       
      +0       0       0       0       0
  1288 ;;      Locals:         2       0       0       0       0       0       0       0       0       0       0       0       
      +0       0       0       0       0
  1289 ;;      Temps:          0       0       0       0       0       0       0       0       0       0       0       0       
      +0       0       0       0       0
  1290 ;;      Totals:         4       0       0       0       0       0       0       0       0       0       0       0       
      +0       0       0       0       0
  1291 ;;Total ram usage:        4 bytes
  1292 ;; Hardware stack levels used:    1
  1293 ;; Hardware stack levels required when called:    2
  1294 ;; This function calls:
  1295 ;;		Nothing
  1296 ;; This function is called by:
  1297 ;;		_pad
  1298 ;; This function uses a non-reentrant model
  1299 ;;
  1300                           
  1301                           	psect	text6
  1302  00161C                     __ptext6:
  1303                           	opt callstack 0
  1304  00161C                     _strlen:
  1305                           	opt callstack 23
  1306                           
  1307                           ;incstack = 0
  1308  00161C  0060  F008  F004   	movff	strlen@s,strlen@a
  1309  001622  0060  F00C  F005   	movff	strlen@s+1,strlen@a+1
  1310  001628  D002               	goto	l1477
  1311  00162A                     l1475:
  1312  00162A  4A02               	infsnz	strlen@s,f,c
  1313  00162C  2A03               	incf	strlen@s+1,f,c
  1314  00162E                     l1477:
  1315  00162E  0060  F00B  FFD9   	movff	strlen@s,fsr2l
  1316  001634  0060  F00F  FFDA   	movff	strlen@s+1,fsr2h
  1317  00163A  50DF               	movf	indf2,w,c
  1318  00163C  A4D8               	btfss	status,2,c
  1319  00163E  D7F5               	goto	l1475
  1320  001640  5004               	movf	strlen@a,w,c
  1321  001642  5C02               	subwf	strlen@s,w,c
  1322  001644  6E02               	movwf	?_strlen,c
  1323  001646  5005               	movf	strlen@a+1,w,c
  1324  001648  5803               	subwfb	strlen@s+1,w,c
  1325  00164A  6E03               	movwf	?_strlen+1,c
  1326  00164C  0012               	return		;funcret
  1327  00164E                     __end_of_strlen:
  1328                           	opt callstack 0
  1329                           
  1330 ;; *************** function _fputs *****************
  1331 ;; Defined at:
  1332 ;;		line 8 in file "/Applications/microchip/xc8/v2.05/pic/sources/c99/common/nf_fputs.c"
  1333 ;; Parameters:    Size  Location     Type
  1334 ;;  s               2   12[COMRAM] PTR const unsigned char 
  1335 ;;		 -> dbuf(32), 
  1336 ;;  fp              2   14[COMRAM] PTR struct _IO_FILE
  1337 ;;		 -> NULL(0), 
  1338 ;; Auto vars:     Size  Location     Type
  1339 ;;  i               2   17[COMRAM] int 
  1340 ;;  c               1   16[COMRAM] unsigned char 
  1341 ;; Return value:  Size  Location     Type
  1342 ;;                  2   12[COMRAM] int 
  1343 ;; Registers used:
  1344 ;;		wreg, fsr1l, fsr1h, fsr2l, fsr2h, status,2, status,0, cstack
  1345 ;; Tracked objects:
  1346 ;;		On entry : 0/0
  1347 ;;		On exit  : 0/0
  1348 ;;		Unchanged: 0/0
  1349 ;; Data sizes:     COMRAM   BANK0   BANK1   BANK2   BANK3   BANK4   BANK5   BANK6   BANK7   BANK8   BANK9  BANK10  BANK1
      +1  BANK12  BANK13  BANK14  BANK15
  1350 ;;      Params:         4       0       0       0       0       0       0       0       0       0       0       0       
      +0       0       0       0       0
  1351 ;;      Locals:         3       0       0       0       0       0       0       0       0       0       0       0       
      +0       0       0       0       0
  1352 ;;      Temps:          0       0       0       0       0       0       0       0       0       0       0       0       
      +0       0       0       0       0
  1353 ;;      Totals:         7       0       0       0       0       0       0       0       0       0       0       0       
      +0       0       0       0       0
  1354 ;;Total ram usage:        7 bytes
  1355 ;; Hardware stack levels used:    1
  1356 ;; Hardware stack levels required when called:    5
  1357 ;; This function calls:
  1358 ;;		_fputc
  1359 ;; This function is called by:
  1360 ;;		_pad
  1361 ;; This function uses a non-reentrant model
  1362 ;;
  1363                           
  1364                           	psect	text7
  1365  0015A2                     __ptext7:
  1366                           	opt callstack 0
  1367  0015A2                     _fputs:
  1368                           	opt callstack 20
  1369                           
  1370                           ;incstack = 0
  1371  0015A2  0E00               	movlw	0
  1372  0015A4  6E13               	movwf	fputs@i+1,c
  1373  0015A6  0E00               	movlw	0
  1374  0015A8  6E12               	movwf	fputs@i,c
  1375  0015AA  D00E               	goto	l1471
  1376  0015AC                     l1467:
  1377  0015AC  0060  F044  F004   	movff	fputs@c,fputc@c
  1378  0015B2  6A05               	clrf	fputc@c+1,c
  1379  0015B4  0060  F03C  F006   	movff	fputs@fp,fputc@fp
  1380  0015BA  0060  F040  F007   	movff	fputs@fp+1,fputc@fp+1
  1381  0015C0  EC17  F00A         	call	_fputc	;wreg free
  1382  0015C4  4A12               	infsnz	fputs@i,f,c
  1383  0015C6  2A13               	incf	fputs@i+1,f,c
  1384  0015C8                     l1471:
  1385  0015C8  5012               	movf	fputs@i,w,c
  1386  0015CA  240D               	addwf	fputs@s,w,c
  1387  0015CC  6ED9               	movwf	fsr2l,c
  1388  0015CE  5013               	movf	fputs@i+1,w,c
  1389  0015D0  200E               	addwfc	fputs@s+1,w,c
  1390  0015D2  6EDA               	movwf	fsr2h,c
  1391  0015D4  50DF               	movf	indf2,w,c
  1392  0015D6  6E11               	movwf	fputs@c,c
  1393  0015D8  5011               	movf	fputs@c,w,c
  1394  0015DA  B4D8               	btfsc	status,2,c
  1395  0015DC  0012               	return	
  1396  0015DE  D7E6               	goto	l1467
  1397  0015E0                     __end_of_fputs:
  1398                           	opt callstack 0
  1399                           
  1400 ;; *************** function _fputc *****************
  1401 ;; Defined at:
  1402 ;;		line 8 in file "/Applications/microchip/xc8/v2.05/pic/sources/c99/common/nf_fputc.c"
  1403 ;; Parameters:    Size  Location     Type
  1404 ;;  c               2    3[COMRAM] int 
  1405 ;;  fp              2    5[COMRAM] PTR struct _IO_FILE
  1406 ;;		 -> NULL(0), 
  1407 ;; Auto vars:     Size  Location     Type
  1408 ;;		None
  1409 ;; Return value:  Size  Location     Type
  1410 ;;                  2    3[COMRAM] int 
  1411 ;; Registers used:
  1412 ;;		wreg, fsr1l, fsr1h, fsr2l, fsr2h, status,2, status,0, cstack
  1413 ;; Tracked objects:
  1414 ;;		On entry : 0/0
  1415 ;;		On exit  : 0/0
  1416 ;;		Unchanged: 0/0
  1417 ;; Data sizes:     COMRAM   BANK0   BANK1   BANK2   BANK3   BANK4   BANK5   BANK6   BANK7   BANK8   BANK9  BANK10  BANK1
      +1  BANK12  BANK13  BANK14  BANK15
  1418 ;;      Params:         4       0       0       0       0       0       0       0       0       0       0       0       
      +0       0       0       0       0
  1419 ;;      Locals:         0       0       0       0       0       0       0       0       0       0       0       0       
      +0       0       0       0       0
  1420 ;;      Temps:          5       0       0       0       0       0       0       0       0       0       0       0       
      +0       0       0       0       0
  1421 ;;      Totals:         9       0       0       0       0       0       0       0       0       0       0       0       
      +0       0       0       0       0
  1422 ;;Total ram usage:        9 bytes
  1423 ;; Hardware stack levels used:    1
  1424 ;; Hardware stack levels required when called:    4
  1425 ;; This function calls:
  1426 ;;		_putch
  1427 ;; This function is called by:
  1428 ;;		_pad
  1429 ;;		_vfpfcnvrt
  1430 ;;		_fputs
  1431 ;; This function uses a non-reentrant model
  1432 ;;
  1433                           
  1434                           	psect	text8
  1435  00142E                     __ptext8:
  1436                           	opt callstack 0
  1437  00142E                     _fputc:
  1438                           	opt callstack 23
  1439                           
  1440                           ;incstack = 0
  1441  00142E  5006               	movf	fputc@fp,w,c
  1442  001430  1007               	iorwf	fputc@fp+1,w,c
  1443  001432  B4D8               	btfsc	status,2,c
  1444  001434  D004               	goto	u400
  1445  001436  5006               	movf	fputc@fp,w,c
  1446  001438  1007               	iorwf	fputc@fp+1,w,c
  1447  00143A  A4D8               	btfss	status,2,c
  1448  00143C  D004               	goto	l1457
  1449  00143E                     u400:
  1450  00143E  5004               	movf	fputc@c,w,c
  1451  001440  ECC7  F00B         	call	_putch
  1452  001444  0012               	return	
  1453  001446                     l1457:
  1454  001446  EE20 F004          	lfsr	2,4
  1455  00144A  5006               	movf	fputc@fp,w,c
  1456  00144C  26D9               	addwf	fsr2l,f,c
  1457  00144E  5007               	movf	fputc@fp+1,w,c
  1458  001450  22DA               	addwfc	fsr2h,f,c
  1459  001452  50DE               	movf	postinc2,w,c
  1460  001454  10DE               	iorwf	postinc2,w,c
  1461  001456  B4D8               	btfsc	status,2,c
  1462  001458  D016               	goto	u420
  1463  00145A  EE20 F004          	lfsr	2,4
  1464  00145E  5006               	movf	fputc@fp,w,c
  1465  001460  26D9               	addwf	fsr2l,f,c
  1466  001462  5007               	movf	fputc@fp+1,w,c
  1467  001464  22DA               	addwfc	fsr2h,f,c
  1468  001466  EE10 F002          	lfsr	1,2
  1469  00146A  5006               	movf	fputc@fp,w,c
  1470  00146C  26E1               	addwf	fsr1l,f,c
  1471  00146E  5007               	movf	fputc@fp+1,w,c
  1472  001470  22E2               	addwfc	fsr1h,f,c
  1473  001472  50DE               	movf	postinc2,w,c
  1474  001474  5CE6               	subwf	postinc1,w,c
  1475  001476  50E6               	movf	postinc1,w,c
  1476  001478  0A80               	xorlw	128
  1477  00147A  6E0C               	movwf	(??_fputc+4)& (0+255),c
  1478  00147C  50DE               	movf	postinc2,w,c
  1479  00147E  0A80               	xorlw	128
  1480  001480  580C               	subwfb	(??_fputc+4)& (0+255),w,c
  1481  001482  B0D8               	btfsc	status,0,c
  1482  001484  0012               	return	
  1483  001486                     u420:
  1484  001486  EE20 F002          	lfsr	2,2
  1485  00148A  5006               	movf	fputc@fp,w,c
  1486  00148C  26D9               	addwf	fsr2l,f,c
  1487  00148E  5007               	movf	fputc@fp+1,w,c
  1488  001490  22DA               	addwfc	fsr2h,f,c
  1489  001492  2ADE               	incf	postinc2,f,c
  1490  001494  0E00               	movlw	0
  1491  001496  22DD               	addwfc	postdec2,f,c
  1492  001498  0012               	return		;funcret
  1493  00149A                     __end_of_fputc:
  1494                           	opt callstack 0
  1495                           
  1496 ;; *************** function _putch *****************
  1497 ;; Defined at:
  1498 ;;		line 208 in file "mcc_generated_files/uart1.c"
  1499 ;; Parameters:    Size  Location     Type
  1500 ;;  txData          1    wreg     unsigned char 
  1501 ;; Auto vars:     Size  Location     Type
  1502 ;;  txData          1    2[COMRAM] unsigned char 
  1503 ;; Return value:  Size  Location     Type
  1504 ;;                  1    wreg      void 
  1505 ;; Registers used:
  1506 ;;		wreg, fsr2l, fsr2h, status,2, status,0, cstack
  1507 ;; Tracked objects:
  1508 ;;		On entry : 0/0
  1509 ;;		On exit  : 0/0
  1510 ;;		Unchanged: 0/0
  1511 ;; Data sizes:     COMRAM   BANK0   BANK1   BANK2   BANK3   BANK4   BANK5   BANK6   BANK7   BANK8   BANK9  BANK10  BANK1
      +1  BANK12  BANK13  BANK14  BANK15
  1512 ;;      Params:         0       0       0       0       0       0       0       0       0       0       0       0       
      +0       0       0       0       0
  1513 ;;      Locals:         1       0       0       0       0       0       0       0       0       0       0       0       
      +0       0       0       0       0
  1514 ;;      Temps:          0       0       0       0       0       0       0       0       0       0       0       0       
      +0       0       0       0       0
  1515 ;;      Totals:         1       0       0       0       0       0       0       0       0       0       0       0       
      +0       0       0       0       0
  1516 ;;Total ram usage:        1 bytes
  1517 ;; Hardware stack levels used:    1
  1518 ;; Hardware stack levels required when called:    3
  1519 ;; This function calls:
  1520 ;;		_UART1_Write
  1521 ;; This function is called by:
  1522 ;;		_fputc
  1523 ;; This function uses a non-reentrant model
  1524 ;;
  1525                           
  1526                           	psect	text9
  1527  00178E                     __ptext9:
  1528                           	opt callstack 0
  1529  00178E                     _putch:
  1530                           	opt callstack 23
  1531                           
  1532                           ;incstack = 0
  1533                           ;putch@txData stored from wreg
  1534  00178E  6E03               	movwf	putch@txData,c
  1535                           
  1536                           ;mcc_generated_files/uart1.c: 208: void putch(char txData);mcc_generated_files/uart1.c: 
      +                          209: {;mcc_generated_files/uart1.c: 210:     UART1_Write(txData);
  1537  001790  5003               	movf	putch@txData,w,c
  1538  001792  ECF0  F00A         	call	_UART1_Write
  1539  001796  0012               	return		;funcret
  1540  001798                     __end_of_putch:
  1541                           	opt callstack 0
  1542                           
  1543 ;; *************** function _UART1_Write *****************
  1544 ;; Defined at:
  1545 ;;		line 180 in file "mcc_generated_files/uart1.c"
  1546 ;; Parameters:    Size  Location     Type
  1547 ;;  txData          1    wreg     unsigned char 
  1548 ;; Auto vars:     Size  Location     Type
  1549 ;;  txData          1    1[COMRAM] unsigned char 
  1550 ;; Return value:  Size  Location     Type
  1551 ;;                  1    wreg      void 
  1552 ;; Registers used:
  1553 ;;		wreg, fsr2l, fsr2h, status,2, status,0
  1554 ;; Tracked objects:
  1555 ;;		On entry : 0/0
  1556 ;;		On exit  : 0/0
  1557 ;;		Unchanged: 0/0
  1558 ;; Data sizes:     COMRAM   BANK0   BANK1   BANK2   BANK3   BANK4   BANK5   BANK6   BANK7   BANK8   BANK9  BANK10  BANK1
      +1  BANK12  BANK13  BANK14  BANK15
  1559 ;;      Params:         0       0       0       0       0       0       0       0       0       0       0       0       
      +0       0       0       0       0
  1560 ;;      Locals:         1       0       0       0       0       0       0       0       0       0       0       0       
      +0       0       0       0       0
  1561 ;;      Temps:          0       0       0       0       0       0       0       0       0       0       0       0       
      +0       0       0       0       0
  1562 ;;      Totals:         1       0       0       0       0       0       0       0       0       0       0       0       
      +0       0       0       0       0
  1563 ;;Total ram usage:        1 bytes
  1564 ;; Hardware stack levels used:    1
  1565 ;; Hardware stack levels required when called:    2
  1566 ;; This function calls:
  1567 ;;		Nothing
  1568 ;; This function is called by:
  1569 ;;		_putch
  1570 ;; This function uses a non-reentrant model
  1571 ;;
  1572                           
  1573                           	psect	text10
  1574  0015E0                     __ptext10:
  1575                           	opt callstack 0
  1576  0015E0                     _UART1_Write:
  1577                           	opt callstack 23
  1578                           
  1579                           ;incstack = 0
  1580                           ;UART1_Write@txData stored from wreg
  1581  0015E0  6E02               	movwf	UART1_Write@txData,c
  1582  0015E2                     
  1583                           ;mcc_generated_files/uart1.c: 182:     while(0 == uart1TxBufferRemaining)
  1584                           
  1585                           ;mcc_generated_files/uart1.c: 180: void UART1_Write(uint8_t txData);mcc_generated_files/
      +                          uart1.c: 181: {;mcc_generated_files/uart1.c: 182:     while(0 == uart1TxBufferRemaining)
  1586  0015E2  505D               	movf	_uart1TxBufferRemaining,w,c	;volatile
  1587  0015E4  B4D8               	btfsc	status,2,c
  1588  0015E6  D7FD               	goto	l1431
  1589                           
  1590                           ;mcc_generated_files/uart1.c: 186:     if(0 == PIE3bits.U1TXIE)
  1591  0015E8  0139               	movlb	57	; () banked
  1592  0015EA  B993               	btfsc	147,4,b	;volatile
  1593  0015EC  D004               	goto	l162
  1594                           
  1595                           ; BSR set to: 57
  1596                           ;mcc_generated_files/uart1.c: 187:     {;mcc_generated_files/uart1.c: 188:         U1TXB
      +                           = txData;
  1597  0015EE  0060  F00B  FDEA   	movff	UART1_Write@txData,15850	;volatile
  1598                           
  1599                           ;mcc_generated_files/uart1.c: 189:     }
  1600  0015F4  D011               	goto	l1447
  1601  0015F6                     l162:
  1602                           
  1603                           ; BSR set to: 57
  1604                           ;mcc_generated_files/uart1.c: 191:     {;mcc_generated_files/uart1.c: 192:         PIE3b
      +                          its.U1TXIE = 0;
  1605  0015F6  9993               	bcf	147,4,b	;volatile
  1606                           
  1607                           ; BSR set to: 57
  1608                           ;mcc_generated_files/uart1.c: 193:         uart1TxBuffer[uart1TxHead++] = txData;
  1609  0015F8  0E45               	movlw	low _uart1TxBuffer
  1610  0015FA  245A               	addwf	_uart1TxHead,w,c	;volatile
  1611  0015FC  6ED9               	movwf	fsr2l,c
  1612  0015FE  6ADA               	clrf	fsr2h,c
  1613  001600  0E00               	movlw	high _uart1TxBuffer
  1614  001602  22DA               	addwfc	fsr2h,f,c
  1615  001604  0060  F00B  FFDF   	movff	UART1_Write@txData,indf2
  1616                           
  1617                           ; BSR set to: 57
  1618  00160A  2A5A               	incf	_uart1TxHead,f,c	;volatile
  1619                           
  1620                           ; BSR set to: 57
  1621                           ;mcc_generated_files/uart1.c: 194:         if(sizeof(uart1TxBuffer) <= uart1TxHead)
  1622  00160C  0E07               	movlw	7
  1623  00160E  645A               	cpfsgt	_uart1TxHead,c	;volatile
  1624  001610  D002               	goto	l1445
  1625                           
  1626                           ; BSR set to: 57
  1627                           ;mcc_generated_files/uart1.c: 195:         {;mcc_generated_files/uart1.c: 196:          
      +                             uart1TxHead = 0;
  1628  001612  0E00               	movlw	0
  1629  001614  6E5A               	movwf	_uart1TxHead,c	;volatile
  1630  001616                     l1445:
  1631                           
  1632                           ; BSR set to: 57
  1633                           ;mcc_generated_files/uart1.c: 198:         uart1TxBufferRemaining--;
  1634  001616  065D               	decf	_uart1TxBufferRemaining,f,c	;volatile
  1635  001618                     l1447:
  1636                           
  1637                           ; BSR set to: 57
  1638                           ;mcc_generated_files/uart1.c: 200:     PIE3bits.U1TXIE = 1;
  1639  001618  8993               	bsf	147,4,b	;volatile
  1640                           
  1641                           ; BSR set to: 57
  1642  00161A  0012               	return		;funcret
  1643  00161C                     __end_of_UART1_Write:
  1644                           	opt callstack 0
  1645                           
  1646 ;; *************** function _SYSTEM_Initialize *****************
  1647 ;; Defined at:
  1648 ;;		line 50 in file "mcc_generated_files/mcc.c"
  1649 ;; Parameters:    Size  Location     Type
  1650 ;;		None
  1651 ;; Auto vars:     Size  Location     Type
  1652 ;;		None
  1653 ;; Return value:  Size  Location     Type
  1654 ;;                  1    wreg      void 
  1655 ;; Registers used:
  1656 ;;		wreg, status,2, status,0, cstack
  1657 ;; Tracked objects:
  1658 ;;		On entry : 0/0
  1659 ;;		On exit  : 0/0
  1660 ;;		Unchanged: 0/0
  1661 ;; Data sizes:     COMRAM   BANK0   BANK1   BANK2   BANK3   BANK4   BANK5   BANK6   BANK7   BANK8   BANK9  BANK10  BANK1
      +1  BANK12  BANK13  BANK14  BANK15
  1662 ;;      Params:         0       0       0       0       0       0       0       0       0       0       0       0       
      +0       0       0       0       0
  1663 ;;      Locals:         0       0       0       0       0       0       0       0       0       0       0       0       
      +0       0       0       0       0
  1664 ;;      Temps:          0       0       0       0       0       0       0       0       0       0       0       0       
      +0       0       0       0       0
  1665 ;;      Totals:         0       0       0       0       0       0       0       0       0       0       0       0       
      +0       0       0       0       0
  1666 ;;Total ram usage:        0 bytes
  1667 ;; Hardware stack levels used:    1
  1668 ;; Hardware stack levels required when called:    4
  1669 ;; This function calls:
  1670 ;;		_INTERRUPT_Initialize
  1671 ;;		_OSCILLATOR_Initialize
  1672 ;;		_PIN_MANAGER_Initialize
  1673 ;;		_PMD_Initialize
  1674 ;;		_UART1_Initialize
  1675 ;; This function is called by:
  1676 ;;		_main
  1677 ;; This function uses a non-reentrant model
  1678 ;;
  1679                           
  1680                           	psect	text11
  1681  00174E                     __ptext11:
  1682                           	opt callstack 0
  1683  00174E                     _SYSTEM_Initialize:
  1684                           	opt callstack 26
  1685                           
  1686                           ;mcc_generated_files/mcc.c: 52:     INTERRUPT_Initialize();
  1687                           
  1688                           ; BSR set to: 57
  1689                           ;incstack = 0
  1690  00174E  ECCC  F00B         	call	_INTERRUPT_Initialize	;wreg free
  1691                           
  1692                           ;mcc_generated_files/mcc.c: 53:     PMD_Initialize();
  1693  001752  EC68  F00B         	call	_PMD_Initialize	;wreg free
  1694                           
  1695                           ;mcc_generated_files/mcc.c: 54:     PIN_MANAGER_Initialize();
  1696  001756  EC5A  F009         	call	_PIN_MANAGER_Initialize	;wreg free
  1697                           
  1698                           ;mcc_generated_files/mcc.c: 55:     OSCILLATOR_Initialize();
  1699  00175A  EC9B  F00B         	call	_OSCILLATOR_Initialize	;wreg free
  1700                           
  1701                           ;mcc_generated_files/mcc.c: 56:     UART1_Initialize();
  1702  00175E  ECA0  F009         	call	_UART1_Initialize	;wreg free
  1703  001762  0012               	return		;funcret
  1704  001764                     __end_of_SYSTEM_Initialize:
  1705                           	opt callstack 0
  1706                           
  1707 ;; *************** function _UART1_Initialize *****************
  1708 ;; Defined at:
  1709 ;;		line 77 in file "mcc_generated_files/uart1.c"
  1710 ;; Parameters:    Size  Location     Type
  1711 ;;		None
  1712 ;; Auto vars:     Size  Location     Type
  1713 ;;		None
  1714 ;; Return value:  Size  Location     Type
  1715 ;;                  1    wreg      void 
  1716 ;; Registers used:
  1717 ;;		wreg, status,2, status,0, cstack
  1718 ;; Tracked objects:
  1719 ;;		On entry : 0/0
  1720 ;;		On exit  : 0/0
  1721 ;;		Unchanged: 0/0
  1722 ;; Data sizes:     COMRAM   BANK0   BANK1   BANK2   BANK3   BANK4   BANK5   BANK6   BANK7   BANK8   BANK9  BANK10  BANK1
      +1  BANK12  BANK13  BANK14  BANK15
  1723 ;;      Params:         0       0       0       0       0       0       0       0       0       0       0       0       
      +0       0       0       0       0
  1724 ;;      Locals:         0       0       0       0       0       0       0       0       0       0       0       0       
      +0       0       0       0       0
  1725 ;;      Temps:          0       0       0       0       0       0       0       0       0       0       0       0       
      +0       0       0       0       0
  1726 ;;      Totals:         0       0       0       0       0       0       0       0       0       0       0       0       
      +0       0       0       0       0
  1727 ;;Total ram usage:        0 bytes
  1728 ;; Hardware stack levels used:    1
  1729 ;; Hardware stack levels required when called:    3
  1730 ;; This function calls:
  1731 ;;		_UART1_SetRxInterruptHandler
  1732 ;;		_UART1_SetTxInterruptHandler
  1733 ;; This function is called by:
  1734 ;;		_SYSTEM_Initialize
  1735 ;; This function uses a non-reentrant model
  1736 ;;
  1737                           
  1738                           	psect	text12
  1739  001340                     __ptext12:
  1740                           	opt callstack 0
  1741  001340                     _UART1_Initialize:
  1742                           	opt callstack 26
  1743                           
  1744                           ;mcc_generated_files/uart1.c: 80:     PIE3bits.U1RXIE = 0;
  1745                           
  1746                           ;incstack = 0
  1747  001340  0139               	movlb	57	; () banked
  1748  001342  9793               	bcf	147,3,b	;volatile
  1749                           
  1750                           ; BSR set to: 57
  1751                           ;mcc_generated_files/uart1.c: 81:     UART1_SetRxInterruptHandler(UART1_Receive_ISR);
  1752  001344  0EF4               	movlw	low _UART1_Receive_ISR
  1753  001346  6E02               	movwf	UART1_SetRxInterruptHandler@InterruptHandler,c
  1754  001348  0E16               	movlw	high _UART1_Receive_ISR
  1755  00134A  6E03               	movwf	UART1_SetRxInterruptHandler@InterruptHandler+1,c
  1756  00134C  ECB9  F00B         	call	_UART1_SetRxInterruptHandler	;wreg free
  1757                           
  1758                           ;mcc_generated_files/uart1.c: 82:     PIE3bits.U1TXIE = 0;
  1759  001350  0139               	movlb	57	; () banked
  1760  001352  9993               	bcf	147,4,b	;volatile
  1761                           
  1762                           ;mcc_generated_files/uart1.c: 83:     UART1_SetTxInterruptHandler(UART1_Transmit_ISR);
  1763  001354  0E4E               	movlw	low _UART1_Transmit_ISR
  1764  001356  6E02               	movwf	UART1_SetTxInterruptHandler@InterruptHandler,c
  1765  001358  0E16               	movlw	high _UART1_Transmit_ISR
  1766  00135A  6E03               	movwf	UART1_SetTxInterruptHandler@InterruptHandler+1,c
  1767  00135C  ECB2  F00B         	call	_UART1_SetTxInterruptHandler	;wreg free
  1768                           
  1769                           ;mcc_generated_files/uart1.c: 88:     U1P1L = 0x00;
  1770  001360  0E00               	movlw	0
  1771  001362  013D               	movlb	61	; () banked
  1772  001364  6FEC               	movwf	236,b	;volatile
  1773                           
  1774                           ; BSR set to: 61
  1775                           ;mcc_generated_files/uart1.c: 91:     U1P1H = 0x00;
  1776  001366  0E00               	movlw	0
  1777  001368  6FED               	movwf	237,b	;volatile
  1778                           
  1779                           ; BSR set to: 61
  1780                           ;mcc_generated_files/uart1.c: 94:     U1P2L = 0x00;
  1781  00136A  0E00               	movlw	0
  1782  00136C  6FEE               	movwf	238,b	;volatile
  1783                           
  1784                           ; BSR set to: 61
  1785                           ;mcc_generated_files/uart1.c: 97:     U1P2H = 0x00;
  1786  00136E  0E00               	movlw	0
  1787  001370  6FEF               	movwf	239,b	;volatile
  1788                           
  1789                           ; BSR set to: 61
  1790                           ;mcc_generated_files/uart1.c: 100:     U1P3L = 0x00;
  1791  001372  0E00               	movlw	0
  1792  001374  6FF0               	movwf	240,b	;volatile
  1793                           
  1794                           ; BSR set to: 61
  1795                           ;mcc_generated_files/uart1.c: 103:     U1P3H = 0x00;
  1796  001376  0E00               	movlw	0
  1797  001378  6FF1               	movwf	241,b	;volatile
  1798                           
  1799                           ; BSR set to: 61
  1800                           ;mcc_generated_files/uart1.c: 106:     U1CON0 = 0xF0;
  1801  00137A  0EF0               	movlw	240
  1802  00137C  6FF2               	movwf	242,b	;volatile
  1803                           
  1804                           ; BSR set to: 61
  1805                           ;mcc_generated_files/uart1.c: 109:     U1CON1 = 0x80;
  1806  00137E  0E80               	movlw	128
  1807  001380  6FF3               	movwf	243,b	;volatile
  1808                           
  1809                           ; BSR set to: 61
  1810                           ;mcc_generated_files/uart1.c: 112:     U1CON2 = 0x00;
  1811  001382  0E00               	movlw	0
  1812  001384  6FF4               	movwf	244,b	;volatile
  1813                           
  1814                           ; BSR set to: 61
  1815                           ;mcc_generated_files/uart1.c: 115:     U1BRGL = 0x82;
  1816  001386  0E82               	movlw	130
  1817  001388  6FF5               	movwf	245,b	;volatile
  1818                           
  1819                           ; BSR set to: 61
  1820                           ;mcc_generated_files/uart1.c: 118:     U1BRGH = 0x06;
  1821  00138A  0E06               	movlw	6
  1822  00138C  6FF6               	movwf	246,b	;volatile
  1823                           
  1824                           ; BSR set to: 61
  1825                           ;mcc_generated_files/uart1.c: 121:     U1FIFO = 0x00;
  1826  00138E  0E00               	movlw	0
  1827  001390  6FF7               	movwf	247,b	;volatile
  1828                           
  1829                           ; BSR set to: 61
  1830                           ;mcc_generated_files/uart1.c: 124:     U1UIR = 0x00;
  1831  001392  0E00               	movlw	0
  1832  001394  6FF8               	movwf	248,b	;volatile
  1833                           
  1834                           ; BSR set to: 61
  1835                           ;mcc_generated_files/uart1.c: 127:     U1ERRIR = 0x00;
  1836  001396  0E00               	movlw	0
  1837  001398  6FF9               	movwf	249,b	;volatile
  1838                           
  1839                           ; BSR set to: 61
  1840                           ;mcc_generated_files/uart1.c: 130:     U1ERRIE = 0x00;
  1841  00139A  0E00               	movlw	0
  1842  00139C  6FFA               	movwf	250,b	;volatile
  1843                           
  1844                           ; BSR set to: 61
  1845                           ;mcc_generated_files/uart1.c: 134:     uart1TxHead = 0;
  1846  00139E  0E00               	movlw	0
  1847  0013A0  6E5A               	movwf	_uart1TxHead,c	;volatile
  1848                           
  1849                           ; BSR set to: 61
  1850                           ;mcc_generated_files/uart1.c: 135:     uart1TxTail = 0;
  1851  0013A2  0E00               	movlw	0
  1852  0013A4  6E59               	movwf	_uart1TxTail,c	;volatile
  1853                           
  1854                           ; BSR set to: 61
  1855                           ;mcc_generated_files/uart1.c: 136:     uart1TxBufferRemaining = sizeof(uart1TxBuffer);
  1856  0013A6  0E08               	movlw	8
  1857  0013A8  6E5D               	movwf	_uart1TxBufferRemaining,c	;volatile
  1858                           
  1859                           ; BSR set to: 61
  1860                           ;mcc_generated_files/uart1.c: 137:     uart1RxHead = 0;
  1861  0013AA  0E00               	movlw	0
  1862  0013AC  6E58               	movwf	_uart1RxHead,c	;volatile
  1863                           
  1864                           ; BSR set to: 61
  1865                           ;mcc_generated_files/uart1.c: 138:     uart1RxTail = 0;
  1866  0013AE  0E00               	movlw	0
  1867  0013B0  6E57               	movwf	_uart1RxTail,c	;volatile
  1868                           
  1869                           ; BSR set to: 61
  1870                           ;mcc_generated_files/uart1.c: 139:     uart1RxCount = 0;
  1871  0013B2  0E00               	movlw	0
  1872  0013B4  6E56               	movwf	_uart1RxCount,c	;volatile
  1873                           
  1874                           ; BSR set to: 61
  1875                           ;mcc_generated_files/uart1.c: 142:     PIE3bits.U1RXIE = 1;
  1876  0013B6  0139               	movlb	57	; () banked
  1877  0013B8  8793               	bsf	147,3,b	;volatile
  1878                           
  1879                           ; BSR set to: 57
  1880  0013BA  0012               	return		;funcret
  1881  0013BC                     __end_of_UART1_Initialize:
  1882                           	opt callstack 0
  1883                           
  1884 ;; *************** function _UART1_SetTxInterruptHandler *****************
  1885 ;; Defined at:
  1886 ;;		line 256 in file "mcc_generated_files/uart1.c"
  1887 ;; Parameters:    Size  Location     Type
  1888 ;;  InterruptHan    2    1[COMRAM] PTR FTN()void 
  1889 ;;		 -> UART1_Transmit_ISR(1), 
  1890 ;; Auto vars:     Size  Location     Type
  1891 ;;		None
  1892 ;; Return value:  Size  Location     Type
  1893 ;;                  1    wreg      void 
  1894 ;; Registers used:
  1895 ;;		wreg, status,2, status,0
  1896 ;; Tracked objects:
  1897 ;;		On entry : 0/0
  1898 ;;		On exit  : 0/0
  1899 ;;		Unchanged: 0/0
  1900 ;; Data sizes:     COMRAM   BANK0   BANK1   BANK2   BANK3   BANK4   BANK5   BANK6   BANK7   BANK8   BANK9  BANK10  BANK1
      +1  BANK12  BANK13  BANK14  BANK15
  1901 ;;      Params:         2       0       0       0       0       0       0       0       0       0       0       0       
      +0       0       0       0       0
  1902 ;;      Locals:         0       0       0       0       0       0       0       0       0       0       0       0       
      +0       0       0       0       0
  1903 ;;      Temps:          0       0       0       0       0       0       0       0       0       0       0       0       
      +0       0       0       0       0
  1904 ;;      Totals:         2       0       0       0       0       0       0       0       0       0       0       0       
      +0       0       0       0       0
  1905 ;;Total ram usage:        2 bytes
  1906 ;; Hardware stack levels used:    1
  1907 ;; Hardware stack levels required when called:    2
  1908 ;; This function calls:
  1909 ;;		Nothing
  1910 ;; This function is called by:
  1911 ;;		_UART1_Initialize
  1912 ;; This function uses a non-reentrant model
  1913 ;;
  1914                           
  1915                           	psect	text13
  1916  001764                     __ptext13:
  1917                           	opt callstack 0
  1918  001764                     _UART1_SetTxInterruptHandler:
  1919                           	opt callstack 26
  1920                           
  1921                           ;mcc_generated_files/uart1.c: 257:     UART1_TxInterruptHandler = InterruptHandler;
  1922                           
  1923                           ; BSR set to: 57
  1924                           ;incstack = 0
  1925  001764  0060  F008  F080   	movff	UART1_SetTxInterruptHandler@InterruptHandler,_UART1_TxInterruptHandler
  1926  00176A  0060  F00C  F081   	movff	UART1_SetTxInterruptHandler@InterruptHandler+1,_UART1_TxInterruptHandler+1
  1927  001770  0012               	return		;funcret
  1928  001772                     __end_of_UART1_SetTxInterruptHandler:
  1929                           	opt callstack 0
  1930                           
  1931 ;; *************** function _UART1_SetRxInterruptHandler *****************
  1932 ;; Defined at:
  1933 ;;		line 252 in file "mcc_generated_files/uart1.c"
  1934 ;; Parameters:    Size  Location     Type
  1935 ;;  InterruptHan    2    1[COMRAM] PTR FTN()void 
  1936 ;;		 -> UART1_Receive_Toggle_ISR(1), UART1_Receive_ISR(1), 
  1937 ;; Auto vars:     Size  Location     Type
  1938 ;;		None
  1939 ;; Return value:  Size  Location     Type
  1940 ;;                  1    wreg      void 
  1941 ;; Registers used:
  1942 ;;		wreg, status,2, status,0
  1943 ;; Tracked objects:
  1944 ;;		On entry : 0/0
  1945 ;;		On exit  : 0/0
  1946 ;;		Unchanged: 0/0
  1947 ;; Data sizes:     COMRAM   BANK0   BANK1   BANK2   BANK3   BANK4   BANK5   BANK6   BANK7   BANK8   BANK9  BANK10  BANK1
      +1  BANK12  BANK13  BANK14  BANK15
  1948 ;;      Params:         2       0       0       0       0       0       0       0       0       0       0       0       
      +0       0       0       0       0
  1949 ;;      Locals:         0       0       0       0       0       0       0       0       0       0       0       0       
      +0       0       0       0       0
  1950 ;;      Temps:          0       0       0       0       0       0       0       0       0       0       0       0       
      +0       0       0       0       0
  1951 ;;      Totals:         2       0       0       0       0       0       0       0       0       0       0       0       
      +0       0       0       0       0
  1952 ;;Total ram usage:        2 bytes
  1953 ;; Hardware stack levels used:    1
  1954 ;; Hardware stack levels required when called:    2
  1955 ;; This function calls:
  1956 ;;		Nothing
  1957 ;; This function is called by:
  1958 ;;		_UART1_Initialize
  1959 ;;		_main
  1960 ;; This function uses a non-reentrant model
  1961 ;;
  1962                           
  1963                           	psect	text14
  1964  001772                     __ptext14:
  1965                           	opt callstack 0
  1966  001772                     _UART1_SetRxInterruptHandler:
  1967                           	opt callstack 28
  1968                           
  1969                           ;mcc_generated_files/uart1.c: 253:     UART1_RxInterruptHandler = InterruptHandler;
  1970                           
  1971                           ;incstack = 0
  1972  001772  0060  F008  F082   	movff	UART1_SetRxInterruptHandler@InterruptHandler,_UART1_RxInterruptHandler
  1973  001778  0060  F00C  F083   	movff	UART1_SetRxInterruptHandler@InterruptHandler+1,_UART1_RxInterruptHandler+1
  1974  00177E  0012               	return		;funcret
  1975  001780                     __end_of_UART1_SetRxInterruptHandler:
  1976                           	opt callstack 0
  1977                           
  1978 ;; *************** function _PMD_Initialize *****************
  1979 ;; Defined at:
  1980 ;;		line 73 in file "mcc_generated_files/mcc.c"
  1981 ;; Parameters:    Size  Location     Type
  1982 ;;		None
  1983 ;; Auto vars:     Size  Location     Type
  1984 ;;		None
  1985 ;; Return value:  Size  Location     Type
  1986 ;;                  1    wreg      void 
  1987 ;; Registers used:
  1988 ;;		wreg, status,2
  1989 ;; Tracked objects:
  1990 ;;		On entry : 0/0
  1991 ;;		On exit  : 0/0
  1992 ;;		Unchanged: 0/0
  1993 ;; Data sizes:     COMRAM   BANK0   BANK1   BANK2   BANK3   BANK4   BANK5   BANK6   BANK7   BANK8   BANK9  BANK10  BANK1
      +1  BANK12  BANK13  BANK14  BANK15
  1994 ;;      Params:         0       0       0       0       0       0       0       0       0       0       0       0       
      +0       0       0       0       0
  1995 ;;      Locals:         0       0       0       0       0       0       0       0       0       0       0       0       
      +0       0       0       0       0
  1996 ;;      Temps:          0       0       0       0       0       0       0       0       0       0       0       0       
      +0       0       0       0       0
  1997 ;;      Totals:         0       0       0       0       0       0       0       0       0       0       0       0       
      +0       0       0       0       0
  1998 ;;Total ram usage:        0 bytes
  1999 ;; Hardware stack levels used:    1
  2000 ;; Hardware stack levels required when called:    2
  2001 ;; This function calls:
  2002 ;;		Nothing
  2003 ;; This function is called by:
  2004 ;;		_SYSTEM_Initialize
  2005 ;; This function uses a non-reentrant model
  2006 ;;
  2007                           
  2008                           	psect	text15
  2009  0016D0                     __ptext15:
  2010                           	opt callstack 0
  2011  0016D0                     _PMD_Initialize:
  2012                           	opt callstack 27
  2013                           
  2014                           ;mcc_generated_files/mcc.c: 76:     PMD0 = 0x00;
  2015                           
  2016                           ;incstack = 0
  2017  0016D0  0E00               	movlw	0
  2018  0016D2  0139               	movlb	57	; () banked
  2019  0016D4  6FC0               	movwf	192,b	;volatile
  2020                           
  2021                           ;mcc_generated_files/mcc.c: 78:     PMD1 = 0x00;
  2022  0016D6  0E00               	movlw	0
  2023  0016D8  6FC1               	movwf	193,b	;volatile
  2024                           
  2025                           ;mcc_generated_files/mcc.c: 80:     PMD2 = 0x00;
  2026  0016DA  0E00               	movlw	0
  2027  0016DC  6FC2               	movwf	194,b	;volatile
  2028                           
  2029                           ;mcc_generated_files/mcc.c: 82:     PMD3 = 0x00;
  2030  0016DE  0E00               	movlw	0
  2031  0016E0  6FC3               	movwf	195,b	;volatile
  2032                           
  2033                           ;mcc_generated_files/mcc.c: 84:     PMD4 = 0x00;
  2034  0016E2  0E00               	movlw	0
  2035  0016E4  6FC4               	movwf	196,b	;volatile
  2036                           
  2037                           ;mcc_generated_files/mcc.c: 86:     PMD5 = 0x00;
  2038  0016E6  0E00               	movlw	0
  2039  0016E8  6FC5               	movwf	197,b	;volatile
  2040                           
  2041                           ;mcc_generated_files/mcc.c: 88:     PMD6 = 0x00;
  2042  0016EA  0E00               	movlw	0
  2043  0016EC  6FC6               	movwf	198,b	;volatile
  2044                           
  2045                           ;mcc_generated_files/mcc.c: 90:     PMD7 = 0x00;
  2046  0016EE  0E00               	movlw	0
  2047  0016F0  6FC7               	movwf	199,b	;volatile
  2048                           
  2049                           ; BSR set to: 57
  2050  0016F2  0012               	return		;funcret
  2051  0016F4                     __end_of_PMD_Initialize:
  2052                           	opt callstack 0
  2053                           
  2054 ;; *************** function _PIN_MANAGER_Initialize *****************
  2055 ;; Defined at:
  2056 ;;		line 59 in file "mcc_generated_files/pin_manager.c"
  2057 ;; Parameters:    Size  Location     Type
  2058 ;;		None
  2059 ;; Auto vars:     Size  Location     Type
  2060 ;;		None
  2061 ;; Return value:  Size  Location     Type
  2062 ;;                  1    wreg      void 
  2063 ;; Registers used:
  2064 ;;		wreg, status,2, status,0, cstack
  2065 ;; Tracked objects:
  2066 ;;		On entry : 0/0
  2067 ;;		On exit  : 0/0
  2068 ;;		Unchanged: 0/0
  2069 ;; Data sizes:     COMRAM   BANK0   BANK1   BANK2   BANK3   BANK4   BANK5   BANK6   BANK7   BANK8   BANK9  BANK10  BANK1
      +1  BANK12  BANK13  BANK14  BANK15
  2070 ;;      Params:         0       0       0       0       0       0       0       0       0       0       0       0       
      +0       0       0       0       0
  2071 ;;      Locals:         0       0       0       0       0       0       0       0       0       0       0       0       
      +0       0       0       0       0
  2072 ;;      Temps:          0       0       0       0       0       0       0       0       0       0       0       0       
      +0       0       0       0       0
  2073 ;;      Totals:         0       0       0       0       0       0       0       0       0       0       0       0       
      +0       0       0       0       0
  2074 ;;Total ram usage:        0 bytes
  2075 ;; Hardware stack levels used:    1
  2076 ;; Hardware stack levels required when called:    3
  2077 ;; This function calls:
  2078 ;;		_IOCBF1_SetInterruptHandler
  2079 ;; This function is called by:
  2080 ;;		_SYSTEM_Initialize
  2081 ;; This function uses a non-reentrant model
  2082 ;;
  2083                           
  2084                           	psect	text16
  2085  0012B4                     __ptext16:
  2086                           	opt callstack 0
  2087  0012B4                     _PIN_MANAGER_Initialize:
  2088                           	opt callstack 26
  2089                           
  2090                           ;mcc_generated_files/pin_manager.c: 64:     LATE = 0x00;
  2091                           
  2092                           ; BSR set to: 57
  2093                           ;incstack = 0
  2094  0012B4  0E00               	movlw	0
  2095  0012B6  6EBE               	movwf	16318,c	;volatile
  2096                           
  2097                           ;mcc_generated_files/pin_manager.c: 65:     LATD = 0x02;
  2098  0012B8  0E02               	movlw	2
  2099  0012BA  6EBD               	movwf	16317,c	;volatile
  2100                           
  2101                           ;mcc_generated_files/pin_manager.c: 66:     LATA = 0x00;
  2102  0012BC  0E00               	movlw	0
  2103  0012BE  6EBA               	movwf	16314,c	;volatile
  2104                           
  2105                           ;mcc_generated_files/pin_manager.c: 67:     LATB = 0x00;
  2106  0012C0  0E00               	movlw	0
  2107  0012C2  6EBB               	movwf	16315,c	;volatile
  2108                           
  2109                           ;mcc_generated_files/pin_manager.c: 68:     LATC = 0x00;
  2110  0012C4  0E00               	movlw	0
  2111  0012C6  6EBC               	movwf	16316,c	;volatile
  2112                           
  2113                           ;mcc_generated_files/pin_manager.c: 73:     TRISE = 0x07;
  2114  0012C8  0E07               	movlw	7
  2115  0012CA  6EC6               	movwf	16326,c	;volatile
  2116                           
  2117                           ;mcc_generated_files/pin_manager.c: 74:     TRISA = 0xFF;
  2118  0012CC  68C2               	setf	16322,c	;volatile
  2119                           
  2120                           ;mcc_generated_files/pin_manager.c: 75:     TRISB = 0xFE;
  2121  0012CE  0EFE               	movlw	254
  2122  0012D0  6EC3               	movwf	16323,c	;volatile
  2123                           
  2124                           ;mcc_generated_files/pin_manager.c: 76:     TRISC = 0xBF;
  2125  0012D2  0EBF               	movlw	191
  2126  0012D4  6EC4               	movwf	16324,c	;volatile
  2127                           
  2128                           ;mcc_generated_files/pin_manager.c: 77:     TRISD = 0xFF;
  2129  0012D6  68C5               	setf	16325,c	;volatile
  2130                           
  2131                           ;mcc_generated_files/pin_manager.c: 82:     ANSELD = 0xFF;
  2132  0012D8  013A               	movlb	58	; () banked
  2133  0012DA  6970               	setf	112,b	;volatile
  2134                           
  2135                           ;mcc_generated_files/pin_manager.c: 83:     ANSELC = 0x3F;
  2136  0012DC  0E3F               	movlw	63
  2137  0012DE  6F60               	movwf	96,b	;volatile
  2138                           
  2139                           ;mcc_generated_files/pin_manager.c: 84:     ANSELB = 0xFC;
  2140  0012E0  0EFC               	movlw	252
  2141  0012E2  6F50               	movwf	80,b	;volatile
  2142                           
  2143                           ;mcc_generated_files/pin_manager.c: 85:     ANSELE = 0x07;
  2144  0012E4  0E07               	movlw	7
  2145  0012E6  6F80               	movwf	128,b	;volatile
  2146                           
  2147                           ; BSR set to: 58
  2148                           ;mcc_generated_files/pin_manager.c: 86:     ANSELA = 0xFF;
  2149  0012E8  6940               	setf	64,b	;volatile
  2150                           
  2151                           ;mcc_generated_files/pin_manager.c: 91:     WPUD = 0x00;
  2152  0012EA  0E00               	movlw	0
  2153  0012EC  6F71               	movwf	113,b	;volatile
  2154                           
  2155                           ;mcc_generated_files/pin_manager.c: 92:     WPUE = 0x00;
  2156  0012EE  0E00               	movlw	0
  2157  0012F0  6F81               	movwf	129,b	;volatile
  2158                           
  2159                           ;mcc_generated_files/pin_manager.c: 93:     WPUB = 0x00;
  2160  0012F2  0E00               	movlw	0
  2161  0012F4  6F51               	movwf	81,b	;volatile
  2162                           
  2163                           ;mcc_generated_files/pin_manager.c: 94:     WPUA = 0x00;
  2164  0012F6  0E00               	movlw	0
  2165  0012F8  6F41               	movwf	65,b	;volatile
  2166                           
  2167                           ;mcc_generated_files/pin_manager.c: 95:     WPUC = 0x00;
  2168  0012FA  0E00               	movlw	0
  2169  0012FC  6F61               	movwf	97,b	;volatile
  2170                           
  2171                           ;mcc_generated_files/pin_manager.c: 100:     ODCONE = 0x00;
  2172  0012FE  0E00               	movlw	0
  2173  001300  6F82               	movwf	130,b	;volatile
  2174                           
  2175                           ;mcc_generated_files/pin_manager.c: 101:     ODCONA = 0x00;
  2176  001302  0E00               	movlw	0
  2177  001304  6F42               	movwf	66,b	;volatile
  2178                           
  2179                           ;mcc_generated_files/pin_manager.c: 102:     ODCONB = 0x00;
  2180  001306  0E00               	movlw	0
  2181  001308  6F52               	movwf	82,b	;volatile
  2182                           
  2183                           ;mcc_generated_files/pin_manager.c: 103:     ODCONC = 0x00;
  2184  00130A  0E00               	movlw	0
  2185  00130C  6F62               	movwf	98,b	;volatile
  2186                           
  2187                           ;mcc_generated_files/pin_manager.c: 104:     ODCOND = 0x00;
  2188  00130E  0E00               	movlw	0
  2189  001310  6F72               	movwf	114,b	;volatile
  2190                           
  2191                           ; BSR set to: 58
  2192                           ;mcc_generated_files/pin_manager.c: 109:     SLRCONA = 0xFF;
  2193  001312  6943               	setf	67,b	;volatile
  2194                           
  2195                           ; BSR set to: 58
  2196                           ;mcc_generated_files/pin_manager.c: 110:     SLRCONB = 0xFF;
  2197  001314  6953               	setf	83,b	;volatile
  2198                           
  2199                           ; BSR set to: 58
  2200                           ;mcc_generated_files/pin_manager.c: 111:     SLRCONC = 0xFF;
  2201  001316  6963               	setf	99,b	;volatile
  2202                           
  2203                           ; BSR set to: 58
  2204                           ;mcc_generated_files/pin_manager.c: 112:     SLRCOND = 0xFF;
  2205  001318  6973               	setf	115,b	;volatile
  2206                           
  2207                           ;mcc_generated_files/pin_manager.c: 113:     SLRCONE = 0x07;
  2208  00131A  0E07               	movlw	7
  2209  00131C  6F83               	movwf	131,b	;volatile
  2210                           
  2211                           ; BSR set to: 58
  2212                           ;mcc_generated_files/pin_manager.c: 120:     IOCBFbits.IOCBF1 = 0;
  2213  00131E  9357               	bcf	87,1,b	;volatile
  2214                           
  2215                           ; BSR set to: 58
  2216                           ;mcc_generated_files/pin_manager.c: 122:     IOCBNbits.IOCBN1 = 0;
  2217  001320  9356               	bcf	86,1,b	;volatile
  2218                           
  2219                           ; BSR set to: 58
  2220                           ;mcc_generated_files/pin_manager.c: 124:     IOCBPbits.IOCBP1 = 1;
  2221  001322  8355               	bsf	85,1,b	;volatile
  2222                           
  2223                           ; BSR set to: 58
  2224                           ;mcc_generated_files/pin_manager.c: 129:     IOCBF1_SetInterruptHandler(IOCBF1_DefaultIn
      +                          terruptHandler);
  2225  001324  0E00               	movlw	0
  2226  001326  6E02               	movwf	IOCBF1_SetInterruptHandler@InterruptHandler,c
  2227  001328  0E00               	movlw	0
  2228  00132A  6E03               	movwf	IOCBF1_SetInterruptHandler@InterruptHandler+1,c
  2229  00132C  ECC0  F00B         	call	_IOCBF1_SetInterruptHandler	;wreg free
  2230                           
  2231                           ;mcc_generated_files/pin_manager.c: 132:     PIE0bits.IOCIE = 1;
  2232  001330  0139               	movlb	57	; () banked
  2233  001332  8F90               	bsf	144,7,b	;volatile
  2234                           
  2235                           ; BSR set to: 57
  2236                           ;mcc_generated_files/pin_manager.c: 135:     RC6PPS = 0x13;
  2237  001334  0E13               	movlw	19
  2238  001336  013A               	movlb	58	; () banked
  2239  001338  6F16               	movwf	22,b	;volatile
  2240                           
  2241                           ; BSR set to: 58
  2242                           ;mcc_generated_files/pin_manager.c: 136:     U1RXPPS = 0x17;
  2243  00133A  0E17               	movlw	23
  2244  00133C  6FE5               	movwf	229,b	;volatile
  2245                           
  2246                           ; BSR set to: 58
  2247  00133E  0012               	return		;funcret
  2248  001340                     __end_of_PIN_MANAGER_Initialize:
  2249                           	opt callstack 0
  2250                           
  2251 ;; *************** function _IOCBF1_SetInterruptHandler *****************
  2252 ;; Defined at:
  2253 ;;		line 166 in file "mcc_generated_files/pin_manager.c"
  2254 ;; Parameters:    Size  Location     Type
  2255 ;;  InterruptHan    2    1[COMRAM] PTR FTN()void 
  2256 ;;		 -> IOCBF1_Button_Pressed_ISR(1), IOCBF1_DefaultInterruptHandler(1), 
  2257 ;; Auto vars:     Size  Location     Type
  2258 ;;		None
  2259 ;; Return value:  Size  Location     Type
  2260 ;;                  1    wreg      void 
  2261 ;; Registers used:
  2262 ;;		wreg, status,2, status,0
  2263 ;; Tracked objects:
  2264 ;;		On entry : 0/0
  2265 ;;		On exit  : 0/0
  2266 ;;		Unchanged: 0/0
  2267 ;; Data sizes:     COMRAM   BANK0   BANK1   BANK2   BANK3   BANK4   BANK5   BANK6   BANK7   BANK8   BANK9  BANK10  BANK1
      +1  BANK12  BANK13  BANK14  BANK15
  2268 ;;      Params:         2       0       0       0       0       0       0       0       0       0       0       0       
      +0       0       0       0       0
  2269 ;;      Locals:         0       0       0       0       0       0       0       0       0       0       0       0       
      +0       0       0       0       0
  2270 ;;      Temps:          0       0       0       0       0       0       0       0       0       0       0       0       
      +0       0       0       0       0
  2271 ;;      Totals:         2       0       0       0       0       0       0       0       0       0       0       0       
      +0       0       0       0       0
  2272 ;;Total ram usage:        2 bytes
  2273 ;; Hardware stack levels used:    1
  2274 ;; Hardware stack levels required when called:    2
  2275 ;; This function calls:
  2276 ;;		Nothing
  2277 ;; This function is called by:
  2278 ;;		_PIN_MANAGER_Initialize
  2279 ;;		_main
  2280 ;; This function uses a non-reentrant model
  2281 ;;
  2282                           
  2283                           	psect	text17
  2284  001780                     __ptext17:
  2285                           	opt callstack 0
  2286  001780                     _IOCBF1_SetInterruptHandler:
  2287                           	opt callstack 26
  2288                           
  2289                           ;mcc_generated_files/pin_manager.c: 167:     IOCBF1_InterruptHandler = InterruptHandler;
  2290                           
  2291                           ; BSR set to: 58
  2292                           ;incstack = 0
  2293  001780  0060  F008  F05B   	movff	IOCBF1_SetInterruptHandler@InterruptHandler,_IOCBF1_InterruptHandler
  2294  001786  0060  F00C  F05C   	movff	IOCBF1_SetInterruptHandler@InterruptHandler+1,_IOCBF1_InterruptHandler+1
  2295  00178C  0012               	return		;funcret
  2296  00178E                     __end_of_IOCBF1_SetInterruptHandler:
  2297                           	opt callstack 0
  2298                           
  2299 ;; *************** function _OSCILLATOR_Initialize *****************
  2300 ;; Defined at:
  2301 ;;		line 59 in file "mcc_generated_files/mcc.c"
  2302 ;; Parameters:    Size  Location     Type
  2303 ;;		None
  2304 ;; Auto vars:     Size  Location     Type
  2305 ;;		None
  2306 ;; Return value:  Size  Location     Type
  2307 ;;                  1    wreg      void 
  2308 ;; Registers used:
  2309 ;;		wreg, status,2
  2310 ;; Tracked objects:
  2311 ;;		On entry : 0/0
  2312 ;;		On exit  : 0/0
  2313 ;;		Unchanged: 0/0
  2314 ;; Data sizes:     COMRAM   BANK0   BANK1   BANK2   BANK3   BANK4   BANK5   BANK6   BANK7   BANK8   BANK9  BANK10  BANK1
      +1  BANK12  BANK13  BANK14  BANK15
  2315 ;;      Params:         0       0       0       0       0       0       0       0       0       0       0       0       
      +0       0       0       0       0
  2316 ;;      Locals:         0       0       0       0       0       0       0       0       0       0       0       0       
      +0       0       0       0       0
  2317 ;;      Temps:          0       0       0       0       0       0       0       0       0       0       0       0       
      +0       0       0       0       0
  2318 ;;      Totals:         0       0       0       0       0       0       0       0       0       0       0       0       
      +0       0       0       0       0
  2319 ;;Total ram usage:        0 bytes
  2320 ;; Hardware stack levels used:    1
  2321 ;; Hardware stack levels required when called:    2
  2322 ;; This function calls:
  2323 ;;		Nothing
  2324 ;; This function is called by:
  2325 ;;		_SYSTEM_Initialize
  2326 ;; This function uses a non-reentrant model
  2327 ;;
  2328                           
  2329                           	psect	text18
  2330  001736                     __ptext18:
  2331                           	opt callstack 0
  2332  001736                     _OSCILLATOR_Initialize:
  2333                           	opt callstack 27
  2334                           
  2335                           ;mcc_generated_files/mcc.c: 62:     OSCCON1 = 0x60;
  2336                           
  2337                           ;incstack = 0
  2338  001736  0E60               	movlw	96
  2339  001738  0139               	movlb	57	; () banked
  2340  00173A  6FD9               	movwf	217,b	;volatile
  2341                           
  2342                           ;mcc_generated_files/mcc.c: 64:     OSCCON3 = 0x00;
  2343  00173C  0E00               	movlw	0
  2344  00173E  6FDB               	movwf	219,b	;volatile
  2345                           
  2346                           ;mcc_generated_files/mcc.c: 66:     OSCEN = 0x00;
  2347  001740  0E00               	movlw	0
  2348  001742  6FDD               	movwf	221,b	;volatile
  2349                           
  2350                           ;mcc_generated_files/mcc.c: 68:     OSCFRQ = 0x08;
  2351  001744  0E08               	movlw	8
  2352  001746  6FDF               	movwf	223,b	;volatile
  2353                           
  2354                           ;mcc_generated_files/mcc.c: 70:     OSCTUNE = 0x00;
  2355  001748  0E00               	movlw	0
  2356  00174A  6FDE               	movwf	222,b	;volatile
  2357                           
  2358                           ; BSR set to: 57
  2359  00174C  0012               	return		;funcret
  2360  00174E                     __end_of_OSCILLATOR_Initialize:
  2361                           	opt callstack 0
  2362                           
  2363 ;; *************** function _INTERRUPT_Initialize *****************
  2364 ;; Defined at:
  2365 ;;		line 52 in file "mcc_generated_files/interrupt_manager.c"
  2366 ;; Parameters:    Size  Location     Type
  2367 ;;		None
  2368 ;; Auto vars:     Size  Location     Type
  2369 ;;		None
  2370 ;; Return value:  Size  Location     Type
  2371 ;;                  1    wreg      void 
  2372 ;; Registers used:
  2373 ;;		None
  2374 ;; Tracked objects:
  2375 ;;		On entry : 0/0
  2376 ;;		On exit  : 0/0
  2377 ;;		Unchanged: 0/0
  2378 ;; Data sizes:     COMRAM   BANK0   BANK1   BANK2   BANK3   BANK4   BANK5   BANK6   BANK7   BANK8   BANK9  BANK10  BANK1
      +1  BANK12  BANK13  BANK14  BANK15
  2379 ;;      Params:         0       0       0       0       0       0       0       0       0       0       0       0       
      +0       0       0       0       0
  2380 ;;      Locals:         0       0       0       0       0       0       0       0       0       0       0       0       
      +0       0       0       0       0
  2381 ;;      Temps:          0       0       0       0       0       0       0       0       0       0       0       0       
      +0       0       0       0       0
  2382 ;;      Totals:         0       0       0       0       0       0       0       0       0       0       0       0       
      +0       0       0       0       0
  2383 ;;Total ram usage:        0 bytes
  2384 ;; Hardware stack levels used:    1
  2385 ;; Hardware stack levels required when called:    2
  2386 ;; This function calls:
  2387 ;;		Nothing
  2388 ;; This function is called by:
  2389 ;;		_SYSTEM_Initialize
  2390 ;; This function uses a non-reentrant model
  2391 ;;
  2392                           
  2393                           	psect	text19
  2394  001798                     __ptext19:
  2395                           	opt callstack 0
  2396  001798                     _INTERRUPT_Initialize:
  2397                           	opt callstack 27
  2398                           
  2399                           ;mcc_generated_files/interrupt_manager.c: 55:     INTCON0bits.IPEN = 0;
  2400                           
  2401                           ; BSR set to: 57
  2402                           ;incstack = 0
  2403  001798  9AD2               	bcf	16338,5,c	;volatile
  2404  00179A  0012               	return		;funcret
  2405  00179C                     __end_of_INTERRUPT_Initialize:
  2406                           	opt callstack 0
  2407                           
  2408 ;; *************** function _INTERRUPT_InterruptManager *****************
  2409 ;; Defined at:
  2410 ;;		line 58 in file "mcc_generated_files/interrupt_manager.c"
  2411 ;; Parameters:    Size  Location     Type
  2412 ;;		None
  2413 ;; Auto vars:     Size  Location     Type
  2414 ;;		None
  2415 ;; Return value:  Size  Location     Type
  2416 ;;                  1    wreg      void 
  2417 ;; Registers used:
  2418 ;;		wreg, fsr2l, fsr2h, status,2, status,0, pclath, tosl, cstack
  2419 ;; Tracked objects:
  2420 ;;		On entry : 0/0
  2421 ;;		On exit  : 0/0
  2422 ;;		Unchanged: 0/0
  2423 ;; Data sizes:     COMRAM   BANK0   BANK1   BANK2   BANK3   BANK4   BANK5   BANK6   BANK7   BANK8   BANK9  BANK10  BANK1
      +1  BANK12  BANK13  BANK14  BANK15
  2424 ;;      Params:         0       0       0       0       0       0       0       0       0       0       0       0       
      +0       0       0       0       0
  2425 ;;      Locals:         0       0       0       0       0       0       0       0       0       0       0       0       
      +0       0       0       0       0
  2426 ;;      Temps:          0       0       0       0       0       0       0       0       0       0       0       0       
      +0       0       0       0       0
  2427 ;;      Totals:         0       0       0       0       0       0       0       0       0       0       0       0       
      +0       0       0       0       0
  2428 ;;Total ram usage:        0 bytes
  2429 ;; Hardware stack levels used:    1
  2430 ;; Hardware stack levels required when called:    1
  2431 ;; This function calls:
  2432 ;;		Absolute function
  2433 ;;		_UART1_Receive_ISR
  2434 ;;		_UART1_Receive_Toggle_ISR
  2435 ;;		_UART1_Transmit_ISR
  2436 ;; This function is called by:
  2437 ;;		Interrupt level 2
  2438 ;; This function uses a non-reentrant model
  2439 ;;
  2440                           
  2441                           	psect	text20
  2442  001562                     __ptext20:
  2443                           	opt callstack 0
  2444  001562                     _INTERRUPT_InterruptManager:
  2445                           	opt callstack 20
  2446                           
  2447                           ;mcc_generated_files/interrupt_manager.c: 61:     if(PIE3bits.U1TXIE == 1 && PIR3bits.U1
      +                          TXIF == 1)
  2448                           
  2449                           ;incstack = 0
  2450  001562  0139               	movlb	57	; () banked
  2451  001564  B993               	btfsc	147,4,b	;volatile
  2452                           
  2453                           ; BSR set to: 57
  2454  001566  A9A3               	btfss	163,4,b	;volatile
  2455  001568  D00C               	goto	i2l18
  2456                           
  2457                           ; BSR set to: 57
  2458                           ;mcc_generated_files/interrupt_manager.c: 62:     {;mcc_generated_files/interrupt_manage
      +                          r.c: 63:         UART1_TxInterruptHandler();
  2459  00156A  D801               	call	i2u60_48
  2460  00156C  0011               	retfie		f
  2461  00156E                     i2u60_48:
  2462  00156E  0005               	push	
  2463  001570  6EFA               	movwf	pclath,c
  2464  001572  0100               	movlb	0	; () banked
  2465  001574  5180               	movf	_UART1_TxInterruptHandler& (0+255),w,b
  2466  001576  6EFD               	movwf	tosl,c
  2467  001578  5181               	movf	(_UART1_TxInterruptHandler+1)& (0+255),w,b
  2468  00157A  6EFE               	movwf	tosh,c
  2469  00157C  6AFF               	clrf	tosu,c
  2470  00157E  50FA               	movf	pclath,w,c
  2471  001580  0012               	return		;indir
  2472  001582                     i2l18:
  2473                           
  2474                           ; BSR set to: 57
  2475  001582  A793               	btfss	147,3,b	;volatile
  2476  001584  0011               	retfie		f
  2477                           
  2478                           ; BSR set to: 57
  2479  001586  A7A3               	btfss	163,3,b	;volatile
  2480  001588  0011               	retfie		f
  2481                           
  2482                           ; BSR set to: 57
  2483                           ;mcc_generated_files/interrupt_manager.c: 66:     {;mcc_generated_files/interrupt_manage
      +                          r.c: 67:         UART1_RxInterruptHandler();
  2484  00158A  D801               	call	i2u63_48
  2485  00158C  0011               	retfie		f
  2486  00158E                     i2u63_48:
  2487  00158E  0005               	push	
  2488  001590  6EFA               	movwf	pclath,c
  2489  001592  0100               	movlb	0	; () banked
  2490  001594  5182               	movf	_UART1_RxInterruptHandler& (0+255),w,b
  2491  001596  6EFD               	movwf	tosl,c
  2492  001598  5183               	movf	(_UART1_RxInterruptHandler+1)& (0+255),w,b
  2493  00159A  6EFE               	movwf	tosh,c
  2494  00159C  6AFF               	clrf	tosu,c
  2495  00159E  50FA               	movf	pclath,w,c
  2496  0015A0  0012               	return		;indir
  2497  0015A2                     __end_of_INTERRUPT_InterruptManager:
  2498                           	opt callstack 0
  2499                           
  2500 ;; *************** function _UART1_Transmit_ISR *****************
  2501 ;; Defined at:
  2502 ;;		line 217 in file "mcc_generated_files/uart1.c"
  2503 ;; Parameters:    Size  Location     Type
  2504 ;;		None
  2505 ;; Auto vars:     Size  Location     Type
  2506 ;;		None
  2507 ;; Return value:  Size  Location     Type
  2508 ;;                  1    wreg      void 
  2509 ;; Registers used:
  2510 ;;		wreg, fsr2l, fsr2h, status,2, status,0
  2511 ;; Tracked objects:
  2512 ;;		On entry : 0/0
  2513 ;;		On exit  : 0/0
  2514 ;;		Unchanged: 0/0
  2515 ;; Data sizes:     COMRAM   BANK0   BANK1   BANK2   BANK3   BANK4   BANK5   BANK6   BANK7   BANK8   BANK9  BANK10  BANK1
      +1  BANK12  BANK13  BANK14  BANK15
  2516 ;;      Params:         0       0       0       0       0       0       0       0       0       0       0       0       
      +0       0       0       0       0
  2517 ;;      Locals:         0       0       0       0       0       0       0       0       0       0       0       0       
      +0       0       0       0       0
  2518 ;;      Temps:          0       0       0       0       0       0       0       0       0       0       0       0       
      +0       0       0       0       0
  2519 ;;      Totals:         0       0       0       0       0       0       0       0       0       0       0       0       
      +0       0       0       0       0
  2520 ;;Total ram usage:        0 bytes
  2521 ;; Hardware stack levels used:    1
  2522 ;; This function calls:
  2523 ;;		Nothing
  2524 ;; This function is called by:
  2525 ;;		_UART1_Initialize
  2526 ;;		_INTERRUPT_InterruptManager
  2527 ;; This function uses a non-reentrant model
  2528 ;;
  2529                           
  2530                           	psect	text21
  2531  00164E                     __ptext21:
  2532                           	opt callstack 0
  2533  00164E                     _UART1_Transmit_ISR:
  2534                           	opt callstack 20
  2535                           
  2536                           ;mcc_generated_files/uart1.c: 220:     if(sizeof(uart1TxBuffer) > uart1TxBufferRemaining
      +                          )
  2537                           
  2538                           ;incstack = 0
  2539  00164E  0E08               	movlw	8
  2540  001650  605D               	cpfslt	_uart1TxBufferRemaining,c	;volatile
  2541  001652  D011               	goto	i2l174
  2542                           
  2543                           ;mcc_generated_files/uart1.c: 221:     {;mcc_generated_files/uart1.c: 222:         U1TXB
      +                           = uart1TxBuffer[uart1TxTail++];
  2544  001654  0E45               	movlw	low _uart1TxBuffer
  2545  001656  2459               	addwf	_uart1TxTail,w,c	;volatile
  2546  001658  6ED9               	movwf	fsr2l,c
  2547  00165A  6ADA               	clrf	fsr2h,c
  2548  00165C  0E00               	movlw	high _uart1TxBuffer
  2549  00165E  22DA               	addwfc	fsr2h,f,c
  2550  001660  50DF               	movf	indf2,w,c
  2551  001662  013D               	movlb	61	; () banked
  2552  001664  6FEA               	movwf	234,b	;volatile
  2553                           
  2554                           ; BSR set to: 61
  2555  001666  2A59               	incf	_uart1TxTail,f,c	;volatile
  2556                           
  2557                           ; BSR set to: 61
  2558                           ;mcc_generated_files/uart1.c: 223:        if(sizeof(uart1TxBuffer) <= uart1TxTail)
  2559  001668  0E07               	movlw	7
  2560  00166A  6459               	cpfsgt	_uart1TxTail,c	;volatile
  2561  00166C  D002               	goto	i2l1675
  2562                           
  2563                           ; BSR set to: 61
  2564                           ;mcc_generated_files/uart1.c: 224:         {;mcc_generated_files/uart1.c: 225:          
      +                             uart1TxTail = 0;
  2565  00166E  0E00               	movlw	0
  2566  001670  6E59               	movwf	_uart1TxTail,c	;volatile
  2567  001672                     i2l1675:
  2568                           
  2569                           ; BSR set to: 61
  2570                           ;mcc_generated_files/uart1.c: 227:         uart1TxBufferRemaining++;
  2571  001672  2A5D               	incf	_uart1TxBufferRemaining,f,c	;volatile
  2572                           
  2573                           ;mcc_generated_files/uart1.c: 228:     }
  2574  001674  0012               	return	
  2575  001676                     i2l174:
  2576                           
  2577                           ;mcc_generated_files/uart1.c: 230:     {;mcc_generated_files/uart1.c: 231:         PIE3b
      +                          its.U1TXIE = 0;
  2578  001676  0139               	movlb	57	; () banked
  2579  001678  9993               	bcf	147,4,b	;volatile
  2580  00167A  0012               	return		;funcret
  2581  00167C                     __end_of_UART1_Transmit_ISR:
  2582                           	opt callstack 0
  2583                           
  2584 ;; *************** function _UART1_Receive_ISR *****************
  2585 ;; Defined at:
  2586 ;;		line 237 in file "mcc_generated_files/uart1.c"
  2587 ;; Parameters:    Size  Location     Type
  2588 ;;		None
  2589 ;; Auto vars:     Size  Location     Type
  2590 ;;		None
  2591 ;; Return value:  Size  Location     Type
  2592 ;;                  1    wreg      void 
  2593 ;; Registers used:
  2594 ;;		wreg, fsr2l, fsr2h, status,2, status,0
  2595 ;; Tracked objects:
  2596 ;;		On entry : 0/0
  2597 ;;		On exit  : 0/0
  2598 ;;		Unchanged: 0/0
  2599 ;; Data sizes:     COMRAM   BANK0   BANK1   BANK2   BANK3   BANK4   BANK5   BANK6   BANK7   BANK8   BANK9  BANK10  BANK1
      +1  BANK12  BANK13  BANK14  BANK15
  2600 ;;      Params:         0       0       0       0       0       0       0       0       0       0       0       0       
      +0       0       0       0       0
  2601 ;;      Locals:         0       0       0       0       0       0       0       0       0       0       0       0       
      +0       0       0       0       0
  2602 ;;      Temps:          0       0       0       0       0       0       0       0       0       0       0       0       
      +0       0       0       0       0
  2603 ;;      Totals:         0       0       0       0       0       0       0       0       0       0       0       0       
      +0       0       0       0       0
  2604 ;;Total ram usage:        0 bytes
  2605 ;; Hardware stack levels used:    1
  2606 ;; This function calls:
  2607 ;;		Nothing
  2608 ;; This function is called by:
  2609 ;;		_UART1_Initialize
  2610 ;;		_INTERRUPT_InterruptManager
  2611 ;; This function uses a non-reentrant model
  2612 ;;
  2613                           
  2614                           	psect	text22
  2615  0016F4                     __ptext22:
  2616                           	opt callstack 0
  2617  0016F4                     _UART1_Receive_ISR:
  2618                           	opt callstack 20
  2619                           
  2620                           ;mcc_generated_files/uart1.c: 240:     uart1RxBuffer[uart1RxHead++] = U1RXB;
  2621                           
  2622                           ;incstack = 0
  2623  0016F4  0E3D               	movlw	low _uart1RxBuffer
  2624  0016F6  2458               	addwf	_uart1RxHead,w,c	;volatile
  2625  0016F8  6ED9               	movwf	fsr2l,c
  2626  0016FA  6ADA               	clrf	fsr2h,c
  2627  0016FC  0E00               	movlw	high _uart1RxBuffer
  2628  0016FE  22DA               	addwfc	fsr2h,f,c
  2629  001700  006F F7A3 FFDF     	movff	15848,indf2	;volatile
  2630  001706  2A58               	incf	_uart1RxHead,f,c	;volatile
  2631                           
  2632                           ;mcc_generated_files/uart1.c: 241:     if(sizeof(uart1RxBuffer) <= uart1RxHead)
  2633  001708  0E07               	movlw	7
  2634  00170A  6458               	cpfsgt	_uart1RxHead,c	;volatile
  2635  00170C  D002               	goto	i2l1685
  2636                           
  2637                           ;mcc_generated_files/uart1.c: 242:     {;mcc_generated_files/uart1.c: 243:         uart1
      +                          RxHead = 0;
  2638  00170E  0E00               	movlw	0
  2639  001710  6E58               	movwf	_uart1RxHead,c	;volatile
  2640  001712                     i2l1685:
  2641                           
  2642                           ;mcc_generated_files/uart1.c: 245:     uart1RxCount++;
  2643  001712  2A56               	incf	_uart1RxCount,f,c	;volatile
  2644  001714  0012               	return		;funcret
  2645  001716                     __end_of_UART1_Receive_ISR:
  2646                           	opt callstack 0
  2647                           
  2648 ;; *************** function _UART1_Receive_Toggle_ISR *****************
  2649 ;; Defined at:
  2650 ;;		line 51 in file "main.c"
  2651 ;; Parameters:    Size  Location     Type
  2652 ;;		None
  2653 ;; Auto vars:     Size  Location     Type
  2654 ;;		None
  2655 ;; Return value:  Size  Location     Type
  2656 ;;                  1    wreg      void 
  2657 ;; Registers used:
  2658 ;;		wreg, status,2, status,0
  2659 ;; Tracked objects:
  2660 ;;		On entry : 0/0
  2661 ;;		On exit  : 0/0
  2662 ;;		Unchanged: 0/0
  2663 ;; Data sizes:     COMRAM   BANK0   BANK1   BANK2   BANK3   BANK4   BANK5   BANK6   BANK7   BANK8   BANK9  BANK10  BANK1
      +1  BANK12  BANK13  BANK14  BANK15
  2664 ;;      Params:         0       0       0       0       0       0       0       0       0       0       0       0       
      +0       0       0       0       0
  2665 ;;      Locals:         0       0       0       0       0       0       0       0       0       0       0       0       
      +0       0       0       0       0
  2666 ;;      Temps:          1       0       0       0       0       0       0       0       0       0       0       0       
      +0       0       0       0       0
  2667 ;;      Totals:         1       0       0       0       0       0       0       0       0       0       0       0       
      +0       0       0       0       0
  2668 ;;Total ram usage:        1 bytes
  2669 ;; Hardware stack levels used:    1
  2670 ;; This function calls:
  2671 ;;		Nothing
  2672 ;; This function is called by:
  2673 ;;		_main
  2674 ;;		_INTERRUPT_InterruptManager
  2675 ;; This function uses a non-reentrant model
  2676 ;;
  2677                           
  2678                           	psect	text23
  2679  001716                     __ptext23:
  2680                           	opt callstack 0
  2681  001716                     _UART1_Receive_Toggle_ISR:
  2682                           	opt callstack 20
  2683                           
  2684                           ;main.c: 53:     ReadBuffer= U1RXB;
  2685                           
  2686                           ;incstack = 0
  2687  001716  006F F7A0  F055    	movff	15848,_ReadBuffer	;volatile
  2688  00171C  A0BB               	btfss	16315,0,c	;volatile
  2689  00171E  D002               	goto	i2u57_40
  2690  001720  0E01               	movlw	1
  2691  001722  D001               	goto	i2u57_46
  2692  001724                     i2u57_40:
  2693  001724  0E00               	movlw	0
  2694  001726                     i2u57_46:
  2695  001726  0AFF               	xorlw	255
  2696  001728  6E01               	movwf	??_UART1_Receive_Toggle_ISR& (0+255),c
  2697  00172A  50BB               	movf	16315,w,c	;volatile
  2698  00172C  1801               	xorwf	??_UART1_Receive_Toggle_ISR,w,c
  2699  00172E  0BFE               	andlw	-2
  2700  001730  1801               	xorwf	??_UART1_Receive_Toggle_ISR,w,c
  2701  001732  6EBB               	movwf	16315,c	;volatile
  2702  001734  0012               	return		;funcret
  2703  001736                     __end_of_UART1_Receive_Toggle_ISR:
  2704                           	opt callstack 0
  2705                           
  2706                           ;
  2707                           ; Interrupt Vector Table @ 0x8
  2708                           ;
  2709                           
  2710                           	psect	ivt0x8
  2711  000008                     __pivt0x8:
  2712                           	opt callstack 0
  2713  000008                     ivt0x8_base:
  2714                           	opt callstack 0
  2715                           
  2716                           ; high-priority vector
  2717  000008  EFB1  F00A         	goto	_INTERRUPT_InterruptManager
  2718  000018                     	org	16
  2719                           
  2720                           ; low-priority vector
  2721  000018  00FF               	reset	
  2722                           
  2723                           	psect	text24
  2724  000000                     __ptext24:
  2725                           	opt callstack 0
  2726                           
  2727                           	psect	rparam
  2728  0000                     tosu	equ	0x3FFF
  2729                           tosh	equ	0x3FFE
  2730                           tosl	equ	0x3FFD
  2731                           stkptr	equ	0x3FFC
  2732                           pclatu	equ	0x3FFB
  2733                           pclath	equ	0x3FFA
  2734                           pcl	equ	0x3FF9
  2735                           tblptru	equ	0x3FF8
  2736                           tblptrh	equ	0x3FF7
  2737                           tblptrl	equ	0x3FF6
  2738                           tablat	equ	0x3FF5
  2739                           prodh	equ	0x3FF4
  2740                           prodl	equ	0x3FF3
  2741                           indf0	equ	0x3FEF
  2742                           postinc0	equ	0x3FEE
  2743                           postdec0	equ	0x3FED
  2744                           preinc0	equ	0x3FEC
  2745                           plusw0	equ	0x3FEB
  2746                           fsr0h	equ	0x3FEA
  2747                           fsr0l	equ	0x3FE9
  2748                           wreg	equ	0x3FE8
  2749                           indf1	equ	0x3FE7
  2750                           postinc1	equ	0x3FE6
  2751                           postdec1	equ	0x3FE5
  2752                           preinc1	equ	0x3FE4
  2753                           plusw1	equ	0x3FE3
  2754                           fsr1h	equ	0x3FE2
  2755                           fsr1l	equ	0x3FE1
  2756                           bsr	equ	0x3FE0
  2757                           indf2	equ	0x3FDF
  2758                           postinc2	equ	0x3FDE
  2759                           postdec2	equ	0x3FDD
  2760                           preinc2	equ	0x3FDC
  2761                           plusw2	equ	0x3FDB
  2762                           fsr2h	equ	0x3FDA
  2763                           fsr2l	equ	0x3FD9
  2764                           status	equ	0x3FD8


Data Sizes:
    Strings     110
    Constant    0
    Data        0
    BSS         62
    Persistent  7
    Stack       0

Auto Spaces:
    Space          Size  Autos    Used
    COMRAM           95     60      93
    BANK0           160      2      38
    BANK1           256      0       0
    BANK2           256      0       0
    BANK3           256      0       0
    BANK4           256      0       0
    BANK5           256      0       0
    BANK6           256      0       0
    BANK7           256      0       0
    BANK8           256      0       0
    BANK9           256      0       0
    BANK10          256      0       0
    BANK11          256      0       0
    BANK12          256      0       0
    BANK13          256      0       0
    BANK14          256      0       0
    BANK15          256      0       0

Pointer List with Targets:

    strlen@s	PTR const unsigned char  size(2) Largest target is 32
		 -> dbuf(BANK0[32]), 

    strlen@a	PTR const unsigned char  size(2) Largest target is 32
		 -> dbuf(BANK0[32]), 

    printf@fmt	PTR const unsigned char  size(2) Largest target is 31
		 -> STR_4(CODE[28]), STR_3(CODE[30]), STR_2(CODE[31]), STR_1(CODE[21]), 

    printf@ap	PTR void [1] size(2) Largest target is 2
		 -> ?_printf(COMRAM[2]), 

    fputs@s	PTR const unsigned char  size(2) Largest target is 32
		 -> dbuf(BANK0[32]), 

    fputs@fp	PTR struct _IO_FILE size(2) Largest target is 0
		 -> NULL(NULL[0]), 

    S1117_IO_FILE$buffer	PTR unsigned char  size(2) Largest target is 0

    fputc@fp.buffer	PTR unsigned char  size(2) Largest target is 0

    fputc@fp	PTR struct _IO_FILE size(2) Largest target is 0
		 -> NULL(NULL[0]), 

    vfprintf@ap	PTR PTR void  size(2) Largest target is 2
		 -> printf@ap(COMRAM[2]), 

    vfprintf@fp	PTR struct _IO_FILE size(2) Largest target is 0
		 -> NULL(NULL[0]), 

    vfprintf@fmt	PTR const unsigned char  size(2) Largest target is 31
		 -> STR_4(CODE[28]), STR_3(CODE[30]), STR_2(CODE[31]), STR_1(CODE[21]), 

    vfprintf@cfmt	PTR unsigned char  size(2) Largest target is 31
		 -> STR_4(CODE[28]), STR_3(CODE[30]), STR_2(CODE[31]), STR_1(CODE[21]), 

    vfpfcnvrt@fp	PTR struct _IO_FILE size(2) Largest target is 0
		 -> NULL(NULL[0]), 

    vfpfcnvrt@ap	PTR PTR void  size(2) Largest target is 2
		 -> printf@ap(COMRAM[2]), 

    vfpfcnvrt@fmt	PTR PTR unsigned char  size(2) Largest target is 2
		 -> vfprintf@cfmt(COMRAM[2]), 

    ctoa@fp	PTR struct _IO_FILE size(2) Largest target is 0
		 -> NULL(NULL[0]), 

    pad@fp	PTR struct _IO_FILE size(2) Largest target is 0
		 -> NULL(NULL[0]), 

    pad@buf	PTR unsigned char  size(2) Largest target is 32
		 -> dbuf(BANK0[32]), 

    IOCBF1_SetInterruptHandler@InterruptHandler	PTR FTN()void  size(2) Largest target is 1
		 -> IOCBF1_Button_Pressed_ISR(), IOCBF1_DefaultInterruptHandler(), 

    IOCBF1_InterruptHandler	PTR FTN()void  size(2) Largest target is 1
		 -> IOCBF1_Button_Pressed_ISR(), Absolute function(), IOCBF1_DefaultInterruptHandler(), 

    UART1_SetTxInterruptHandler@InterruptHandler	PTR FTN()void  size(2) Largest target is 1
		 -> UART1_Transmit_ISR(), 

    UART1_SetRxInterruptHandler@InterruptHandler	PTR FTN()void  size(2) Largest target is 1
		 -> UART1_Receive_Toggle_ISR(), UART1_Receive_ISR(), 

    UART1_RxInterruptHandler	PTR FTN()void  size(2) Largest target is 1
		 -> UART1_Receive_Toggle_ISR(), Absolute function(), UART1_Receive_ISR(), 

    UART1_TxInterruptHandler	PTR FTN()void  size(2) Largest target is 1
		 -> Absolute function(), UART1_Transmit_ISR(), 


Critical Paths under _main in COMRAM

    _main->_printf
    _printf->_vfprintf
    _vfprintf->_vfpfcnvrt
    _vfpfcnvrt->_ctoa
    _ctoa->_pad
    _pad->_fputs
    _fputs->_fputc
    _fputc->_putch
    _putch->_UART1_Write
    _UART1_Initialize->_UART1_SetRxInterruptHandler
    _UART1_Initialize->_UART1_SetTxInterruptHandler
    _PIN_MANAGER_Initialize->_IOCBF1_SetInterruptHandler

Critical Paths under _INTERRUPT_InterruptManager in COMRAM

    _INTERRUPT_InterruptManager->_UART1_Receive_Toggle_ISR

Critical Paths under _main in BANK0

    None.

Critical Paths under _INTERRUPT_InterruptManager in BANK0

    None.

Critical Paths under _main in BANK1

    None.

Critical Paths under _INTERRUPT_InterruptManager in BANK1

    None.

Critical Paths under _main in BANK2

    None.

Critical Paths under _INTERRUPT_InterruptManager in BANK2

    None.

Critical Paths under _main in BANK3

    None.

Critical Paths under _INTERRUPT_InterruptManager in BANK3

    None.

Critical Paths under _main in BANK4

    None.

Critical Paths under _INTERRUPT_InterruptManager in BANK4

    None.

Critical Paths under _main in BANK5

    None.

Critical Paths under _INTERRUPT_InterruptManager in BANK5

    None.

Critical Paths under _main in BANK6

    None.

Critical Paths under _INTERRUPT_InterruptManager in BANK6

    None.

Critical Paths under _main in BANK7

    None.

Critical Paths under _INTERRUPT_InterruptManager in BANK7

    None.

Critical Paths under _main in BANK8

    None.

Critical Paths under _INTERRUPT_InterruptManager in BANK8

    None.

Critical Paths under _main in BANK9

    None.

Critical Paths under _INTERRUPT_InterruptManager in BANK9

    None.

Critical Paths under _main in BANK10

    None.

Critical Paths under _INTERRUPT_InterruptManager in BANK10

    None.

Critical Paths under _main in BANK11

    None.

Critical Paths under _INTERRUPT_InterruptManager in BANK11

    None.

Critical Paths under _main in BANK12

    None.

Critical Paths under _INTERRUPT_InterruptManager in BANK12

    None.

Critical Paths under _main in BANK13

    None.

Critical Paths under _INTERRUPT_InterruptManager in BANK13

    None.

Critical Paths under _main in BANK14

    None.

Critical Paths under _INTERRUPT_InterruptManager in BANK14

    None.

Critical Paths under _main in BANK15

    None.

Critical Paths under _INTERRUPT_InterruptManager in BANK15

    None.

Call Graph Tables:

 ---------------------------------------------------------------------------------
 (Depth) Function   	        Calls       Base Space   Used Autos Params    Refs
 ---------------------------------------------------------------------------------
 (0) _main                                                 2     2      0    5805
                                              0 BANK0      2     2      0
         _IOCBF1_SetInterruptHandler
                  _SYSTEM_Initialize
        _UART1_SetRxInterruptHandler
                             _printf
 ---------------------------------------------------------------------------------
 (1) _printf                                               8     4      4    5011
                                             52 COMRAM     8     4      4
                           _vfprintf
 ---------------------------------------------------------------------------------
 (2) _vfprintf                                             8     2      6    4653
                                             44 COMRAM     8     2      6
                          _vfpfcnvrt
 ---------------------------------------------------------------------------------
 (3) _vfpfcnvrt                                           42    36      6    4300
                                             35 COMRAM     9     3      6
                               _ctoa
                              _fputc
 ---------------------------------------------------------------------------------
 (4) _ctoa                                                 7     4      3    2929
                                             30 COMRAM     5     2      3
                                _pad
 ---------------------------------------------------------------------------------
 (5) _pad                                                 11     5      6    2709
                                             19 COMRAM    11     5      6
                              _fputc
                              _fputs
                             _strlen
 ---------------------------------------------------------------------------------
 (6) _strlen                                               4     2      2     166
                                              1 COMRAM     4     2      2
 ---------------------------------------------------------------------------------
 (6) _fputs                                                7     3      4    1235
                                             12 COMRAM     7     3      4
                              _fputc
 ---------------------------------------------------------------------------------
 (4) _fputc                                                9     5      4     834
                                              3 COMRAM     9     5      4
                              _putch
 ---------------------------------------------------------------------------------
 (5) _putch                                                1     1      0      66
                                              2 COMRAM     1     1      0
                        _UART1_Write
 ---------------------------------------------------------------------------------
 (6) _UART1_Write                                          1     1      0      44
                                              1 COMRAM     1     1      0
 ---------------------------------------------------------------------------------
 (1) _SYSTEM_Initialize                                    0     0      0     446
               _INTERRUPT_Initialize
              _OSCILLATOR_Initialize
             _PIN_MANAGER_Initialize
                     _PMD_Initialize
                   _UART1_Initialize
 ---------------------------------------------------------------------------------
 (2) _UART1_Initialize                                     0     0      0     272
        _UART1_SetRxInterruptHandler
        _UART1_SetTxInterruptHandler
 ---------------------------------------------------------------------------------
 (3) _UART1_SetTxInterruptHandler                          2     0      2      98
                                              1 COMRAM     2     0      2
 ---------------------------------------------------------------------------------
 (1) _UART1_SetRxInterruptHandler                          2     0      2     174
                                              1 COMRAM     2     0      2
 ---------------------------------------------------------------------------------
 (2) _PMD_Initialize                                       0     0      0       0
 ---------------------------------------------------------------------------------
 (2) _PIN_MANAGER_Initialize                               0     0      0     174
         _IOCBF1_SetInterruptHandler
 ---------------------------------------------------------------------------------
 (3) _IOCBF1_SetInterruptHandler                           2     0      2     174
                                              1 COMRAM     2     0      2
 ---------------------------------------------------------------------------------
 (2) _OSCILLATOR_Initialize                                0     0      0       0
 ---------------------------------------------------------------------------------
 (2) _INTERRUPT_Initialize                                 0     0      0       0
 ---------------------------------------------------------------------------------
 Estimated maximum stack depth 6
 ---------------------------------------------------------------------------------
 (Depth) Function   	        Calls       Base Space   Used Autos Params    Refs
 ---------------------------------------------------------------------------------
 (10) _INTERRUPT_InterruptManager                          0     0      0       0
                   Absolute function *
                  _UART1_Receive_ISR *
           _UART1_Receive_Toggle_ISR *
                 _UART1_Transmit_ISR *
 ---------------------------------------------------------------------------------
 (11) _UART1_Transmit_ISR                                  0     0      0       0
 ---------------------------------------------------------------------------------
 (11) _UART1_Receive_Toggle_ISR                            1     1      0       0
                                              0 COMRAM     1     1      0
 ---------------------------------------------------------------------------------
 (11) _UART1_Receive_ISR                                   0     0      0       0
 ---------------------------------------------------------------------------------
 (11) Absolute function(Fake)                              0     0      0       0
 ---------------------------------------------------------------------------------
 Estimated maximum stack depth 11
 ---------------------------------------------------------------------------------

 Call Graph Graphs:

 _main (ROOT)
   _IOCBF1_SetInterruptHandler
   _SYSTEM_Initialize
     _INTERRUPT_Initialize
     _OSCILLATOR_Initialize
     _PIN_MANAGER_Initialize
       _IOCBF1_SetInterruptHandler
     _PMD_Initialize
     _UART1_Initialize
       _UART1_SetRxInterruptHandler
       _UART1_SetTxInterruptHandler
   _UART1_SetRxInterruptHandler
   _printf
     _vfprintf
       _vfpfcnvrt
         _ctoa
           _pad
             _fputc
               _putch
                 _UART1_Write
             _fputs
               _fputc
                 _putch
                   _UART1_Write
             _strlen
         _fputc
           _putch
             _UART1_Write

 _INTERRUPT_InterruptManager (ROOT)
   Absolute function(Fake) *
   _UART1_Receive_ISR *
   _UART1_Receive_Toggle_ISR *
   _UART1_Transmit_ISR *

 Address spaces:
Name               Size   Autos  Total    Cost      Usage
BIGRAM             FFF      0       0      37        0.0%
EEDATA             400      0       0       0        0.0%
BITBANK15          100      0       0      30        0.0%
BANK15             100      0       0      31        0.0%
BITBANK14          100      0       0      28        0.0%
BANK14             100      0       0      29        0.0%
BITBANK13          100      0       0      36        0.0%
BANK13             100      0       0      27        0.0%
BITBANK12          100      0       0      35        0.0%
BANK12             100      0       0      26        0.0%
BITBANK11          100      0       0      34        0.0%
BANK11             100      0       0      25        0.0%
BITBANK10          100      0       0      33        0.0%
BANK10             100      0       0      24        0.0%
BITBANK9           100      0       0      22        0.0%
BANK9              100      0       0      23        0.0%
BITBANK8           100      0       0      20        0.0%
BANK8              100      0       0      21        0.0%
BITBANK7           100      0       0      18        0.0%
BANK7              100      0       0      19        0.0%
BITBANK6           100      0       0      16        0.0%
BANK6              100      0       0      17        0.0%
BITBANK5           100      0       0      14        0.0%
BANK5              100      0       0      15        0.0%
BITBANK4           100      0       0      12        0.0%
BANK4              100      0       0      13        0.0%
BITBANK3           100      0       0      10        0.0%
BANK3              100      0       0      11        0.0%
BITBANK2           100      0       0       8        0.0%
BANK2              100      0       0       9        0.0%
BITBANK1           100      0       0       6        0.0%
BANK1              100      0       0       7        0.0%
BITBANK0            A0      0       0       4        0.0%
BANK0               A0      2      26       5       23.8%
BITCOMRAM           5F      0       0       0        0.0%
COMRAM              5F     3C      5D       1       97.9%
BITSFR_8             0      0       0     200        0.0%
SFR_8                0      0       0     200        0.0%
BITSFR_7             0      0       0     200        0.0%
SFR_7                0      0       0     200        0.0%
BITSFR_6             0      0       0     200        0.0%
SFR_6                0      0       0     200        0.0%
BITSFR_5             0      0       0     200        0.0%
SFR_5                0      0       0     200        0.0%
BITSFR_4             0      0       0     200        0.0%
SFR_4                0      0       0     200        0.0%
BITSFR_3             0      0       0     200        0.0%
SFR_3                0      0       0     200        0.0%
BITSFR_2             0      0       0     200        0.0%
SFR_2                0      0       0     200        0.0%
BITSFR_1             0      0       0     200        0.0%
SFR_1                0      0       0     200        0.0%
BITSFR               0      0       0     200        0.0%
SFR                  0      0       0     200        0.0%
STACK                0      0       0       2        0.0%
NULL                 0      0       0       0        0.0%
ABS                  0      0      83      32        0.0%
DATA                 0      0      83       3        0.0%
CODE                 0      0       0       0        0.0%


Microchip Technology PIC18 Macro Assembler V2.05 build -831301201 
Symbol Table                                                                                   Sat Aug 10 18:47:04 2019

                                __CFG_CP$OFF 000000                                  __CFG_LVP$ON 000000  
                                        l162 15F6                                          l350 123C  
                                        u400 143E                                          u420 1486  
                                        u707 1400                                          _pad 1202  
                    __size_of_PMD_Initialize 0024                                          tosl 003FFD  
                                        wreg 003FE8           __end_of_IOCBF1_SetInterruptHandler 178E  
                 _IOCBF1_SetInterruptHandler 1780                           _UART1_Transmit_ISR 164E  
                              __CFG_BBEN$OFF 000000                                 __CFG_ZCD$OFF 000000  
                                       l1501 1296                                         l1431 15E2  
                                       l1511 1524                                         l1445 1616  
                                       l1509 1518                                         l1541 1148  
                                       l1447 1618                                         l1471 15C8  
                                       l1551 11A0                                         l1457 1446  
                                       l1467 15AC                                         l1475 162A  
                                       l1491 1234                                         l1547 1196  
                                       l1651 14B0                                         l1477 162E  
                                       l1493 1246                                         l1557 11BC  
                                       l1653 14DC                                         l1487 1222  
                                       l1751 140E                                         l1497 1262  
                                       ?_pad 0014                                         STR_1 105A  
                                       STR_2 1001                                         STR_3 1020  
                                       STR_4 103E                                         _LATA 003FBA  
                                       _LATB 003FBB                                         _LATC 003FBC  
                                       _LATD 003FBD                                         _LATE 003FBE  
                                       _PMD0 0039C0                                         _PMD1 0039C1  
                                       _PMD2 0039C2                                         _PMD3 0039C3  
                                       _PMD4 0039C4                                         _PMD5 0039C5  
                                       _PMD6 0039C6                                         _PMD7 0039C7  
                                       i2l18 1582                                         _WPUA 003A41  
                                       _WPUB 003A51                                         _WPUC 003A61  
                                       _WPUD 003A71                                         _WPUE 003A81  
                              __CFG_FCMEN$ON 000000                          ?_UART1_Transmit_ISR 0001  
                                       _dbuf 0060                                         _ctoa 1502  
                                       _main 13BC                                         _prec 0051  
                                       _nout 004D                                         pad@i 001B  
                                       pad@p 0018                                         fsr1h 003FE2  
                                       fsr2h 003FDA                                         indf2 003FDF  
                                       fsr1l 003FE1                                         pad@w 001D  
                                       fsr2l 003FD9                                         start 001A  
              ??_UART1_SetTxInterruptHandler 0004                                __CFG_CSWEN$ON 000000  
                               ___param_bank 000000                                        ??_pad 001A  
             __size_of_OSCILLATOR_Initialize 0018                         ??_UART1_Transmit_ISR 0001  
              __end_of_OSCILLATOR_Initialize 174E                                        ?_ctoa 001F  
                                      ?_main 0001                                __CFG_WDTE$OFF 000000  
                                      _U1P1H 003DED                                        _U1P2H 003DEF  
                                      _U1P1L 003DEC                                        _U1P3H 003DF1  
                                      _U1P2L 003DEE                                        _U1P3L 003DF0  
                             __CFG_DEBUG$OFF 000000                                        _U1UIR 003DF8  
                                      _U1RXB 003DE8                                        _U1TXB 003DEA  
                                      i2l174 1676                                        _OSCEN 0039DD  
                               vfpfcnvrt@fmt 0026                                        _TRISA 003FC2  
                                      _TRISB 003FC3                                        _TRISC 003FC4  
                                      _TRISD 003FC5                                        _TRISE 003FC6  
                              __CFG_WRTB$OFF 000000                                __CFG_WRTC$OFF 000000  
                              __CFG_WRTD$OFF 000000                                        _flags 0053  
                                      _fputc 142E                                        _fputs 15A2  
                         __CFG_MCLRE$EXTMCLR 000000                                        pad@fp 0014  
                                      _width 004F                                        ctoa@c 0021  
                                      _putch 178E                                        ctoa@w 0022  
                                      pclath 003FFA                                        tablat 003FF5  
                                      status 003FD8          __end_of_UART1_SetRxInterruptHandler 1780  
                _UART1_SetRxInterruptHandler 1772                                   _ReadBuffer 0055  
                            __initialization 167C                                 __end_of_ctoa 1562  
                               __end_of_main 142E                               __CFG_SAFEN$OFF 000000  
                ?_INTERRUPT_InterruptManager 0001                                 ?_UART1_Write 0001  
                                     ??_ctoa 0022                                       ??_main 0084  
                             __CFG_PR1WAY$ON 000000                                __activetblptr 000003  
       __size_of_UART1_SetTxInterruptHandler 000E                             _UART1_Initialize 1340  
                                     ?_fputc 0004                                       ?_fputs 000D  
           __end_of_UART1_Receive_Toggle_ISR 1736                                       _ANSELA 003A40  
                                     ?_putch 0001                                       _ANSELB 003A50  
                                     _ANSELC 003A60                                       _ANSELD 003A70  
                                     _ANSELE 003A80                                       _U1CON0 003DF2  
                                     _U1CON1 003DF3                                       _U1CON2 003DF4  
                                     _U1BRGH 003DF6                                       _U1FIFO 003DF7  
                                     _U1BRGL 003DF5                                       _ODCONA 003A42  
                                     _ODCONB 003A52                                       _ODCONC 003A62  
                                     _RC6PPS 003A16                                       _ODCOND 003A72  
                                     _ODCONE 003A82                               __CFG_WDTCCS$SC 000000  
                                     i2l1675 1672                                       i2l1685 1712  
                                     _OSCFRQ 0039DF                               __CFG_XINST$OFF 000000  
                               vfprintf@cfmt 0033                               __CFG_STVREN$ON 000000  
                                     clear_0 1682                                       clear_1 168E  
                                     _printf 16A6                                       pad@buf 0016  
                                     ctoa@fp 001F                                       _strlen 161C  
                                     fputc@c 0004                               _PMD_Initialize 16D0  
                                     fputs@c 0011                                       fputs@i 0012  
                                     fputs@s 000D                                 __mediumconst 0000  
                                     tblptrh 003FF7                                       tblptrl 003FF6  
                                     tblptru 003FF8                             __end_of_vfprintf 1502  
 IOCBF1_SetInterruptHandler@InterruptHandler 0002  UART1_SetTxInterruptHandler@InterruptHandler 0002  
UART1_SetRxInterruptHandler@InterruptHandler 0002                __size_of_INTERRUPT_Initialize 0004  
                          _SYSTEM_Initialize 174E                                   __accesstop 0060  
                    __end_of__initialization 16A0                           ?_SYSTEM_Initialize 0001  
                              ___rparam_used 000001                               __pcstackCOMRAM 0001  
                        ??_SYSTEM_Initialize 0004                                __end_of_fputc 149A  
                              __end_of_fputs 15E0                                __end_of_putch 1798  
                     __end_of_PMD_Initialize 16F4                  ?_IOCBF1_SetInterruptHandler 0002  
                                    ??_fputc 0008                    __end_of_SYSTEM_Initialize 1764  
                                    ??_fputs 0011                              __CFG_IVT1WAY$ON 000000  
                                    ??_putch 0003                                   __pbssBANK0 0060  
                            __CFG_MVECEN$OFF 000000                                   __pnvCOMRAM 005B  
                   _UART1_Receive_Toggle_ISR 1716                                      IVTBASEH 003FD6  
                                    IVTBASEL 003FD5                                      IVTBASEU 003FD7  
                    _IOCBF1_InterruptHandler 005B                              __CFG_PPS1WAY$ON 000000  
                                    ?_printf 0035                              ?_PMD_Initialize 0001  
                          _UART1_Receive_ISR 16F4                                      ?_strlen 0002  
                                    _U1ERRIE 003DFA                                      _U1ERRIR 003DF9  
                        __CFG_PWRTS$PWRT_OFF 000000                         __size_of_UART1_Write 003C  
                         ?_UART1_Receive_ISR 0001                                      _U1RXPPS 003AE5  
                                    _OSCCON1 0039D9                                      _OSCCON3 0039DB  
                         __size_of_vfpfcnvrt 0192                                      i2u60_48 156E  
                                    _OSCTUNE 0039DE                                      i2u63_48 158E  
                                    i2u57_40 1724                                      i2u57_46 1726  
                                    _SLRCONA 003A43                                      _SLRCONB 003A53  
                                    _SLRCONC 003A63                                      _SLRCOND 003A73  
                                    _SLRCONE 003A83                          ??_UART1_Receive_ISR 0001  
                                    __Hparam 0000                                      __Lparam 0000  
                   __end_of_UART1_Initialize 13BC                   __CFG_RSTOSC$HFINTOSC_64MHZ 000000  
                  __end_of_UART1_Receive_ISR 1716                                    ?_vfprintf 002D  
                               __psmallconst 1000                                      __pcinit 167C  
                                    __ramtop 1000                  __size_of_UART1_Transmit_ISR 002E  
                                    __ptext0 13BC                                      __ptext1 16A6  
                                    __ptext2 149A                                      __ptext3 1070  
                                    __ptext4 1502                                      __ptext5 1202  
                                    __ptext6 161C                                      __ptext7 15A2  
                                    __ptext8 142E                                      __ptext9 178E  
                            __size_of_printf 002A                              __CFG_WRTAPP$OFF 000000  
                            __size_of_strlen 0032                        _OSCILLATOR_Initialize 1736  
                               __size_of_pad 00B2                     ??_PIN_MANAGER_Initialize 0004  
                            __CFG_WRTSAF$OFF 000000                                    _IOCBFbits 003A57  
                                  _IOCBNbits 003A56                                    _IOCBPbits 003A55  
                 __size_of_SYSTEM_Initialize 0016                         end_of_initialization 16A0  
                                    fputc@fp 0006          __end_of_UART1_SetTxInterruptHandler 1772  
                _UART1_SetTxInterruptHandler 1764                                      fputs@fp 000F  
                          __end_of_vfpfcnvrt 1202                                      postdec2 003FDD  
                                    postinc0 003FEE                                      postinc1 003FE6  
                                    postinc2 003FDE                                   ??_vfprintf 0033  
                          UART1_Write@txData 0002                        __CFG_WDTCPS$WDTCPS_31 000000  
                                    strlen@a 0004                                      strlen@s 0002  
                           __CFG_FEXTOSC$OFF 000000                 __end_of_INTERRUPT_Initialize 179C  
                 __size_of_UART1_Receive_ISR 0022                                  vfpfcnvrt@ap 0028  
                                vfpfcnvrt@fp 0024                       ?_OSCILLATOR_Initialize 0001  
                             __end_of_printf 16D0                               __end_of_strlen 164E  
                  _IOCBF1_Button_Pressed_ISR 000000                          start_initialization 167C  
            __size_of_PIN_MANAGER_Initialize 008C                   ??_UART1_Receive_Toggle_ISR 0001  
                                __end_of_pad 12B4                                  putch@txData 0003  
                                 ivt0x8_base 0008                                _uart1RxBuffer 003D  
                              _uart1TxBuffer 0045                             __CFG_LPBOREN$OFF 000000  
                                vfprintf@fmt 002F                             ??_PMD_Initialize 0002  
                                   ??_printf 0039               _IOCBF1_DefaultInterruptHandler 000000  
                                   ??_strlen 0004                                  __pbssCOMRAM 003D  
                              __pcstackBANK0 0084                     _UART1_RxInterruptHandler 0082  
               ?_UART1_SetRxInterruptHandler 0002                                    __pnvBANK0 0080  
                     _PIN_MANAGER_Initialize 12B4                            ?_UART1_Initialize 0001  
                         ??_UART1_Initialize 0004                                ??_UART1_Write 0002  
               ??_INTERRUPT_InterruptManager 0002                            __size_of_vfprintf 0068  
                     __CFG_BBSIZE$BBSIZE_512 000000                                  __smallconst 1000  
                             __size_of_fputc 006C                               __size_of_fputs 003E  
                                _U1ERRIRbits 003DF9                               __size_of_putch 000A  
                       _INTERRUPT_Initialize 1798                                     _LATBbits 003FBB  
                                   _PIE0bits 003990                                     _PIE3bits 003993  
                        __CFG_BORV$VBOR_2P45 000000                ??_UART1_SetRxInterruptHandler 0004  
        __size_of_INTERRUPT_InterruptManager 0040                                     _PIR3bits 0039A3  
                 __end_of_UART1_Transmit_ISR 167C                                    _vfpfcnvrt 1070  
                        __end_of_UART1_Write 161C                                   vfpfcnvrt@c 002C  
                                _INTCON0bits 003FD2                        ?_INTERRUPT_Initialize 0001  
                     _uart1TxBufferRemaining 005D                                 _uart1RxCount 0056  
                                   __Hrparam 0000                                   vfprintf@ap 0031  
                                   __Lrparam 0000                                   vfprintf@fp 002D  
                         __CFG_BOREN$SBORDIS 000000                      ??_OSCILLATOR_Initialize 0002  
                                 ?_vfpfcnvrt 0024         __size_of_UART1_SetRxInterruptHandler 000E  
                                   __pivt0x8 0008                                     __ptext10 15E0  
                                   __ptext11 174E                                     __ptext20 1562  
                                   __ptext12 1340                                     __ptext21 164E  
                                   __ptext13 1764                                     __ptext22 16F4  
                                   __ptext14 1772                                     __ptext23 1716  
                                   __ptext15 16D0                                     __ptext24 0000  
                                   __ptext16 12B4                                     __ptext17 1780  
                                   __ptext18 1736                                     __ptext19 1798  
               ??_IOCBF1_SetInterruptHandler 0004                                __size_of_ctoa 0060  
                              __size_of_main 0072                         __CFG_WDTCWS$WDTCWS_7 000000  
                                   _vfprintf 149A           __end_of_INTERRUPT_InterruptManager 15A2  
                 _INTERRUPT_InterruptManager 1562                                    printf@fmt 0035  
                                _UART1_Write 15E0          __size_of_IOCBF1_SetInterruptHandler 000E  
                                _uart1RxHead 0058                                  _uart1TxHead 005A  
                                _uart1RxTail 0057                                  _uart1TxTail 0059  
                     ??_INTERRUPT_Initialize 0002                                     intlevel2 0000  
                    ?_PIN_MANAGER_Initialize 0001                            __CFG_CLKOUTEN$OFF 000000  
          __size_of_UART1_Receive_Toggle_ISR 0020                    ?_UART1_Receive_Toggle_ISR 0001  
                                   printf@ap 003B                                  ??_vfpfcnvrt 002A  
                  __size_of_UART1_Initialize 007C                     _UART1_TxInterruptHandler 0080  
             __end_of_PIN_MANAGER_Initialize 1340                 ?_UART1_SetTxInterruptHandler 0002  
